; generated by ARM C/C++ Compiler, 4.1 [Build 644]
; commandline ArmCC [--list --debug -c --asm --interleave -o.\EXE\full_can.o --asm_dir=.\ --list_dir=.\ --depend=.\EXE\full_can.d --cpu=Cortex-M3 --apcs=interwork -O3 -IC:\Keil\ARM\CMSIS\Include -IC:\Keil\ARM\INC\NXP\LPC17xx -D__MICROLIB -DUKU2071x -DEXT_BOARD_V_2 -DWG12232A --omf_browse=.\EXE\full_can.crf full_can.c]
                          THUMB

                          AREA ||.text||, CODE, READONLY, ALIGN=2

                  CRC1_in PROC
;;;109    //-----------------------------------------------
;;;110    char CRC1_in(void)
000000  b530              PUSH     {r4,r5,lr}
;;;111    {
;;;112    char r,j,lb;
;;;113    lb=(RXBUFF[1]&0x1f)+0x04;
000002  4bff              LDR      r3,|L1.1024|
;;;114    r=RXBUFF[0];
;;;115    for(j=1;j<(lb+1);j++)
000004  2201              MOVS     r2,#1
;;;116    	{
;;;117    	r=(RXBUFF[j]^Table87[r]);
000006  4cff              LDR      r4,|L1.1028|
000008  7858              LDRB     r0,[r3,#1]            ;113  ; RXBUFF
00000a  f000011f          AND      r1,r0,#0x1f           ;113
00000e  7818              LDRB     r0,[r3,#0]            ;114  ; RXBUFF
000010  1d49              ADDS     r1,r1,#5              ;115
000012  e004              B        |L1.30|
                  |L1.20|
000014  5c9d              LDRB     r5,[r3,r2]
000016  5c20              LDRB     r0,[r4,r0]
000018  4068              EORS     r0,r0,r5
00001a  1c52              ADDS     r2,r2,#1              ;115
00001c  b2d2              UXTB     r2,r2                 ;115
                  |L1.30|
00001e  428a              CMP      r2,r1                 ;115
000020  d3f8              BCC      |L1.20|
;;;118    	}
;;;119    if(r==0)r=0xFF;
000022  2800              CMP      r0,#0
000024  d100              BNE      |L1.40|
000026  20ff              MOVS     r0,#0xff
                  |L1.40|
;;;120    return r;	
;;;121    } 
000028  bd30              POP      {r4,r5,pc}
;;;122    
                          ENDP

                  CRC2_in PROC
;;;123    //-----------------------------------------------
;;;124    char CRC2_in(void)
00002a  b530              PUSH     {r4,r5,lr}
;;;125    {
;;;126    char r,j,lb;
;;;127    lb=(RXBUFF[1]&0x1f)+0x04;
00002c  4bf4              LDR      r3,|L1.1024|
;;;128    r=RXBUFF[0];
;;;129    for(j=1;j<(lb+1);j++)
00002e  2201              MOVS     r2,#1
;;;130    	{
;;;131    	r=(RXBUFF[j]^Table95[r]);
000030  4cf5              LDR      r4,|L1.1032|
000032  7858              LDRB     r0,[r3,#1]            ;127  ; RXBUFF
000034  f000011f          AND      r1,r0,#0x1f           ;127
000038  7818              LDRB     r0,[r3,#0]            ;128  ; RXBUFF
00003a  1d49              ADDS     r1,r1,#5              ;129
00003c  e004              B        |L1.72|
                  |L1.62|
00003e  5c9d              LDRB     r5,[r3,r2]
000040  5c20              LDRB     r0,[r4,r0]
000042  4068              EORS     r0,r0,r5
000044  1c52              ADDS     r2,r2,#1              ;129
000046  b2d2              UXTB     r2,r2                 ;129
                  |L1.72|
000048  428a              CMP      r2,r1                 ;129
00004a  d3f8              BCC      |L1.62|
;;;132    	}
;;;133    if(r==0)r=0xFF;
00004c  2800              CMP      r0,#0
00004e  d100              BNE      |L1.82|
000050  20ff              MOVS     r0,#0xff
                  |L1.82|
;;;134    return r;	
;;;135    }  
000052  bd30              POP      {r4,r5,pc}
;;;136    
                          ENDP

                  CRC1_out PROC
;;;137    //-----------------------------------------------
;;;138    char CRC1_out(void)
000054  4bea              LDR      r3,|L1.1024|
;;;139    {
000056  b530              PUSH     {r4,r5,lr}
;;;140    char r,j,lb;
;;;141    lb=(TXBUFF[1]&0x1f)+0x04;
000058  3328              ADDS     r3,r3,#0x28
;;;142    r=TXBUFF[0];
;;;143    for(j=1;j<(lb+1);j++)
00005a  2201              MOVS     r2,#1
00005c  7858              LDRB     r0,[r3,#1]            ;141  ; TXBUFF
;;;144    	{
;;;145    	r=(TXBUFF[j]^Table87[r]);
00005e  4ce9              LDR      r4,|L1.1028|
000060  f000011f          AND      r1,r0,#0x1f           ;141
000064  7818              LDRB     r0,[r3,#0]            ;142  ; TXBUFF
000066  1d49              ADDS     r1,r1,#5              ;143
000068  e004              B        |L1.116|
                  |L1.106|
00006a  5c9d              LDRB     r5,[r3,r2]
00006c  5c20              LDRB     r0,[r4,r0]
00006e  4068              EORS     r0,r0,r5
000070  1c52              ADDS     r2,r2,#1              ;143
000072  b2d2              UXTB     r2,r2                 ;143
                  |L1.116|
000074  428a              CMP      r2,r1                 ;143
000076  d3f8              BCC      |L1.106|
;;;146    	}
;;;147    if(r==0)r=0xFF;
000078  2800              CMP      r0,#0
00007a  d100              BNE      |L1.126|
00007c  20ff              MOVS     r0,#0xff
                  |L1.126|
;;;148    return r;	
;;;149    } 
00007e  bd30              POP      {r4,r5,pc}
;;;150    
                          ENDP

                  CRC2_out PROC
;;;151    //-----------------------------------------------
;;;152    char CRC2_out(void)
000080  4bdf              LDR      r3,|L1.1024|
;;;153    {
000082  b530              PUSH     {r4,r5,lr}
;;;154    char r,j,lb;
;;;155    lb=(TXBUFF[1]&0x1f)+0x04;
000084  3328              ADDS     r3,r3,#0x28
;;;156    r=TXBUFF[0];
;;;157    for(j=1;j<(lb+1);j++)
000086  2201              MOVS     r2,#1
000088  7858              LDRB     r0,[r3,#1]            ;155  ; TXBUFF
;;;158    	{
;;;159    	r=(TXBUFF[j]^Table95[r]);
00008a  4cdf              LDR      r4,|L1.1032|
00008c  f000011f          AND      r1,r0,#0x1f           ;155
000090  7818              LDRB     r0,[r3,#0]            ;156  ; TXBUFF
000092  1d49              ADDS     r1,r1,#5              ;157
000094  e004              B        |L1.160|
                  |L1.150|
000096  5c9d              LDRB     r5,[r3,r2]
000098  5c20              LDRB     r0,[r4,r0]
00009a  4068              EORS     r0,r0,r5
00009c  1c52              ADDS     r2,r2,#1              ;157
00009e  b2d2              UXTB     r2,r2                 ;157
                  |L1.160|
0000a0  428a              CMP      r2,r1                 ;157
0000a2  d3f8              BCC      |L1.150|
;;;160    	}
;;;161    if(r==0)r=0xFF;
0000a4  2800              CMP      r0,#0
0000a6  d100              BNE      |L1.170|
0000a8  20ff              MOVS     r0,#0xff
                  |L1.170|
;;;162    return r;	
;;;163    }
0000aa  bd30              POP      {r4,r5,pc}
;;;164    
                          ENDP

                  can1_out_adr PROC
;;;165    //-----------------------------------------------
;;;166    void can1_out_adr(char* ptr,char num)
0000ac  e92d4ff0          PUSH     {r4-r11,lr}
;;;167    {
;;;168    
;;;169    if(num<=8)
;;;170    	{
;;;171    	can1_info[ptr_can1_tx_wr]=(((long)num)<<16)&0x000f0000UL;
0000b0  f8dfa358          LDR      r10,|L1.1036|
0000b4  4dd6              LDR      r5,|L1.1040|
;;;172    	can1_id[ptr_can1_tx_wr]=0x0000009eUL;
;;;173    	*((char*)&can1_data[ptr_can1_tx_wr])=ptr[0];
;;;174    	*(((char*)&can1_data[ptr_can1_tx_wr])+1)=ptr[1];
;;;175    	*(((char*)&can1_data[ptr_can1_tx_wr])+2)=ptr[2];
;;;176    	*(((char*)&can1_data[ptr_can1_tx_wr])+3)=ptr[3];
;;;177    	*((char*)&can1_datb[ptr_can1_tx_wr])=ptr[4];
;;;178    	*(((char*)&can1_datb[ptr_can1_tx_wr])+1)=ptr[5];
;;;179    	*(((char*)&can1_datb[ptr_can1_tx_wr])+2)=ptr[6];
;;;180    	*(((char*)&can1_datb[ptr_can1_tx_wr])+3)=ptr[7];	
;;;181    	ptr_can1_tx_wr++;
;;;182    	if(ptr_can1_tx_wr>=8)ptr_can1_tx_wr=0;
0000b6  2600              MOVS     r6,#0
0000b8  f89a2002          LDRB     r2,[r10,#2]           ;171
0000bc  f1050b40          ADD      r11,r5,#0x40          ;173
0000c0  1c53              ADDS     r3,r2,#1              ;181
0000c2  b2db              UXTB     r3,r3                 ;181
0000c4  4699              MOV      r9,r3                 ;181
0000c6  f1050e60          ADD      lr,r5,#0x60           ;177
0000ca  f04f0c9e          MOV      r12,#0x9e             ;172
0000ce  eb0e0382          ADD      r3,lr,r2,LSL #2       ;177
0000d2  eb0b0482          ADD      r4,r11,r2,LSL #2      ;173
0000d6  2908              CMP      r1,#8                 ;169
0000d8  d824              BHI      |L1.292|
0000da  f44f2770          MOV      r7,#0xf0000           ;171
0000de  ea074101          AND      r1,r7,r1,LSL #16      ;171
0000e2  f8451022          STR      r1,[r5,r2,LSL #2]     ;171
0000e6  f1050120          ADD      r1,r5,#0x20           ;172
0000ea  46d0              MOV      r8,r10                ;171
0000ec  f841c022          STR      r12,[r1,r2,LSL #2]    ;172
0000f0  7807              LDRB     r7,[r0,#0]            ;173
0000f2  f80b7022          STRB     r7,[r11,r2,LSL #2]    ;173
0000f6  7841              LDRB     r1,[r0,#1]            ;174
0000f8  7061              STRB     r1,[r4,#1]            ;174
0000fa  7881              LDRB     r1,[r0,#2]            ;175
0000fc  70a1              STRB     r1,[r4,#2]            ;175
0000fe  78c1              LDRB     r1,[r0,#3]            ;176
000100  70e1              STRB     r1,[r4,#3]            ;176
000102  7904              LDRB     r4,[r0,#4]            ;177
000104  f80e4022          STRB     r4,[lr,r2,LSL #2]     ;177
000108  7941              LDRB     r1,[r0,#5]            ;178
00010a  7059              STRB     r1,[r3,#1]            ;178
00010c  7981              LDRB     r1,[r0,#6]            ;179
00010e  7099              STRB     r1,[r3,#2]            ;179
000110  79c0              LDRB     r0,[r0,#7]            ;180
000112  70d8              STRB     r0,[r3,#3]            ;180
000114  f8889002          STRB     r9,[r8,#2]            ;181
000118  f1b90f08          CMP      r9,#8
00011c  d301              BCC      |L1.290|
00011e  f88a6002          STRB     r6,[r10,#2]
                  |L1.290|
000122  e199              B        |L1.1112|
                  |L1.292|
;;;183    	}
;;;184    	
;;;185    else if(num<=16)
;;;186    	{
;;;187    	can1_info[ptr_can1_tx_wr]=(8UL<<16)&0x000f0000UL;
000124  f44f2700          MOV      r7,#0x80000
000128  2910              CMP      r1,#0x10              ;185
00012a  d856              BHI      |L1.474|
;;;188    	can1_id[ptr_can1_tx_wr]=0x0000009eUL;
00012c  f8dfc2e0          LDR      r12,|L1.1040|
000130  f8457022          STR      r7,[r5,r2,LSL #2]     ;187
000134  279e              MOVS     r7,#0x9e
000136  f10c0c20          ADD      r12,r12,#0x20
;;;189    	*((char*)&can1_data[ptr_can1_tx_wr])=ptr[0];
;;;190    	*(((char*)&can1_data[ptr_can1_tx_wr])+1)=ptr[1];
;;;191    	*(((char*)&can1_data[ptr_can1_tx_wr])+2)=ptr[2];
;;;192    	*(((char*)&can1_data[ptr_can1_tx_wr])+3)=ptr[3];
;;;193    	*((char*)&can1_datb[ptr_can1_tx_wr])=ptr[4];
;;;194    	*(((char*)&can1_datb[ptr_can1_tx_wr])+1)=ptr[5];
;;;195    	*(((char*)&can1_datb[ptr_can1_tx_wr])+2)=ptr[6];
;;;196    	*(((char*)&can1_datb[ptr_can1_tx_wr])+3)=ptr[7];	
;;;197    	ptr_can1_tx_wr++;
;;;198    	if(ptr_can1_tx_wr>=8)ptr_can1_tx_wr=0;
00013a  f1b90f08          CMP      r9,#8
00013e  f84c7022          STR      r7,[r12,r2,LSL #2]    ;188
000142  f8908000          LDRB     r8,[r0,#0]            ;189
000146  f80b8022          STRB     r8,[r11,r2,LSL #2]    ;189
00014a  f8908001          LDRB     r8,[r0,#1]            ;190
00014e  f8848001          STRB     r8,[r4,#1]            ;190
000152  f8908002          LDRB     r8,[r0,#2]            ;191
000156  f8848002          STRB     r8,[r4,#2]            ;191
00015a  f8908003          LDRB     r8,[r0,#3]            ;192
00015e  f8848003          STRB     r8,[r4,#3]            ;192
000162  f8908004          LDRB     r8,[r0,#4]            ;193
000166  f80e8022          STRB     r8,[lr,r2,LSL #2]     ;193
00016a  7942              LDRB     r2,[r0,#5]            ;194
00016c  705a              STRB     r2,[r3,#1]            ;194
00016e  7982              LDRB     r2,[r0,#6]            ;195
000170  709a              STRB     r2,[r3,#2]            ;195
000172  79c2              LDRB     r2,[r0,#7]            ;196
000174  70da              STRB     r2,[r3,#3]            ;196
000176  465f              MOV      r7,r11                ;189
000178  4674              MOV      r4,lr                 ;193
00017a  4653              MOV      r3,r10                ;197
00017c  f88a9002          STRB     r9,[r10,#2]           ;197
000180  d300              BCC      |L1.388|
000182  709e              STRB     r6,[r3,#2]
                  |L1.388|
;;;199    	
;;;200    	can1_info[ptr_can1_tx_wr]=(((long)(num-8))<<16)&0x000f0000UL;
000184  3908              SUBS     r1,r1,#8
000186  f44f2270          MOV      r2,#0xf0000
00018a  ea024201          AND      r2,r2,r1,LSL #16
00018e  f89a1002          LDRB     r1,[r10,#2]  ; ptr_can1_tx_wr
;;;201    	can1_id[ptr_can1_tx_wr]=0x0000009eUL;
;;;202    	*((char*)&can1_data[ptr_can1_tx_wr])=ptr[8];
;;;203    	*(((char*)&can1_data[ptr_can1_tx_wr])+1)=ptr[9];
000192  eb0b0381          ADD      r3,r11,r1,LSL #2
000196  f8452021          STR      r2,[r5,r1,LSL #2]     ;200
00019a  229e              MOVS     r2,#0x9e              ;201
00019c  f84c2021          STR      r2,[r12,r1,LSL #2]    ;201
0001a0  7a02              LDRB     r2,[r0,#8]            ;202
0001a2  f8072021          STRB     r2,[r7,r1,LSL #2]     ;202
0001a6  7a42              LDRB     r2,[r0,#9]
0001a8  705a              STRB     r2,[r3,#1]
;;;204    	*(((char*)&can1_data[ptr_can1_tx_wr])+2)=ptr[10];
0001aa  7a82              LDRB     r2,[r0,#0xa]
0001ac  709a              STRB     r2,[r3,#2]
;;;205    	*(((char*)&can1_data[ptr_can1_tx_wr])+3)=ptr[11];
0001ae  7ac2              LDRB     r2,[r0,#0xb]
0001b0  70da              STRB     r2,[r3,#3]
;;;206    	*((char*)&can1_datb[ptr_can1_tx_wr])=ptr[12];
0001b2  7b02              LDRB     r2,[r0,#0xc]
0001b4  f8042021          STRB     r2,[r4,r1,LSL #2]
;;;207    	*(((char*)&can1_datb[ptr_can1_tx_wr])+1)=ptr[13];
0001b8  eb0e0281          ADD      r2,lr,r1,LSL #2
0001bc  7b43              LDRB     r3,[r0,#0xd]
0001be  7053              STRB     r3,[r2,#1]
;;;208    	*(((char*)&can1_datb[ptr_can1_tx_wr])+2)=ptr[14];
0001c0  7b83              LDRB     r3,[r0,#0xe]
0001c2  7093              STRB     r3,[r2,#2]
;;;209    	*(((char*)&can1_datb[ptr_can1_tx_wr])+3)=ptr[15];	
0001c4  7bc0              LDRB     r0,[r0,#0xf]
0001c6  70d0              STRB     r0,[r2,#3]
;;;210    	ptr_can1_tx_wr++;
0001c8  1c49              ADDS     r1,r1,#1
0001ca  b2c8              UXTB     r0,r1
0001cc  4651              MOV      r1,r10
0001ce  f88a0002          STRB     r0,[r10,#2]
;;;211    	if(ptr_can1_tx_wr>=8)ptr_can1_tx_wr=0;	
0001d2  2808              CMP      r0,#8
0001d4  d3a5              BCC      |L1.290|
0001d6  708e              STRB     r6,[r1,#2]
0001d8  e13e              B        |L1.1112|
                  |L1.474|
;;;212    	}	
;;;213    
;;;214    else if(num<=24)
0001da  2918              CMP      r1,#0x18
0001dc  d87e              BHI      |L1.732|
;;;215    	{
;;;216    	can1_info[ptr_can1_tx_wr]=(8UL<<16)&0x000f0000UL;
;;;217    	can1_id[ptr_can1_tx_wr]=0x0000009eUL;
0001de  f8df8230          LDR      r8,|L1.1040|
0001e2  f8457022          STR      r7,[r5,r2,LSL #2]     ;216
0001e6  f1080820          ADD      r8,r8,#0x20
0001ea  f04f0c9e          MOV      r12,#0x9e
0001ee  f848c022          STR      r12,[r8,r2,LSL #2]
;;;218    	*((char*)&can1_data[ptr_can1_tx_wr])=ptr[0];
0001f2  f8908000          LDRB     r8,[r0,#0]
0001f6  f80b8022          STRB     r8,[r11,r2,LSL #2]
;;;219    	*(((char*)&can1_data[ptr_can1_tx_wr])+1)=ptr[1];
0001fa  f890c001          LDRB     r12,[r0,#1]
0001fe  f884c001          STRB     r12,[r4,#1]
;;;220    	*(((char*)&can1_data[ptr_can1_tx_wr])+2)=ptr[2];
000202  f890c002          LDRB     r12,[r0,#2]
000206  f884c002          STRB     r12,[r4,#2]
;;;221    	*(((char*)&can1_data[ptr_can1_tx_wr])+3)=ptr[3];
00020a  f890c003          LDRB     r12,[r0,#3]
00020e  f884c003          STRB     r12,[r4,#3]
;;;222    	*((char*)&can1_datb[ptr_can1_tx_wr])=ptr[4];
000212  f890c004          LDRB     r12,[r0,#4]
000216  f80ec022          STRB     r12,[lr,r2,LSL #2]
;;;223    	*(((char*)&can1_datb[ptr_can1_tx_wr])+1)=ptr[5];
00021a  7942              LDRB     r2,[r0,#5]
00021c  705a              STRB     r2,[r3,#1]
;;;224    	*(((char*)&can1_datb[ptr_can1_tx_wr])+2)=ptr[6];
00021e  7982              LDRB     r2,[r0,#6]
000220  709a              STRB     r2,[r3,#2]
;;;225    	*(((char*)&can1_datb[ptr_can1_tx_wr])+3)=ptr[7];	
000222  79c2              LDRB     r2,[r0,#7]
000224  70da              STRB     r2,[r3,#3]
000226  4674              MOV      r4,lr                 ;222
;;;226    	ptr_can1_tx_wr++;
000228  4653              MOV      r3,r10
00022a  f88a9002          STRB     r9,[r10,#2]
;;;227    	if(ptr_can1_tx_wr>=8)ptr_can1_tx_wr=0;
00022e  f1b90f08          CMP      r9,#8
000232  d300              BCC      |L1.566|
000234  709e              STRB     r6,[r3,#2]
                  |L1.566|
;;;228    
;;;229    	can1_info[ptr_can1_tx_wr]=(8UL<<16)&0x000f0000UL;
000236  f89a2002          LDRB     r2,[r10,#2]  ; ptr_can1_tx_wr
;;;230    	can1_id[ptr_can1_tx_wr]=0x0000009eUL;
00023a  f8df91d4          LDR      r9,|L1.1040|
;;;231    	*((char*)&can1_data[ptr_can1_tx_wr])=ptr[8];
;;;232    	*(((char*)&can1_data[ptr_can1_tx_wr])+1)=ptr[9];
00023e  eb0b0382          ADD      r3,r11,r2,LSL #2
000242  f8457022          STR      r7,[r5,r2,LSL #2]     ;229
000246  f1090920          ADD      r9,r9,#0x20           ;230
00024a  279e              MOVS     r7,#0x9e              ;230
00024c  f8497022          STR      r7,[r9,r2,LSL #2]     ;230
000250  f890c008          LDRB     r12,[r0,#8]           ;231
000254  f80bc022          STRB     r12,[r11,r2,LSL #2]   ;231
000258  f890c009          LDRB     r12,[r0,#9]
00025c  f883c001          STRB     r12,[r3,#1]
;;;233    	*(((char*)&can1_data[ptr_can1_tx_wr])+2)=ptr[10];
000260  f890c00a          LDRB     r12,[r0,#0xa]
000264  f883c002          STRB     r12,[r3,#2]
;;;234    	*(((char*)&can1_data[ptr_can1_tx_wr])+3)=ptr[11];
000268  f890c00b          LDRB     r12,[r0,#0xb]
00026c  f883c003          STRB     r12,[r3,#3]
;;;235    	*((char*)&can1_datb[ptr_can1_tx_wr])=ptr[12];
000270  7b03              LDRB     r3,[r0,#0xc]
000272  f8043022          STRB     r3,[r4,r2,LSL #2]
;;;236    	*(((char*)&can1_datb[ptr_can1_tx_wr])+1)=ptr[13];
000276  eb040c82          ADD      r12,r4,r2,LSL #2
00027a  7b43              LDRB     r3,[r0,#0xd]
00027c  f88c3001          STRB     r3,[r12,#1]
;;;237    	*(((char*)&can1_datb[ptr_can1_tx_wr])+2)=ptr[14];
000280  7b83              LDRB     r3,[r0,#0xe]
000282  f88c3002          STRB     r3,[r12,#2]
;;;238    	*(((char*)&can1_datb[ptr_can1_tx_wr])+3)=ptr[15];	
000286  7bc3              LDRB     r3,[r0,#0xf]
;;;239    	ptr_can1_tx_wr++;
000288  1c52              ADDS     r2,r2,#1
00028a  46d0              MOV      r8,r10                ;229
00028c  f88c3003          STRB     r3,[r12,#3]           ;238
000290  b2d2              UXTB     r2,r2
000292  4643              MOV      r3,r8
000294  f8882002          STRB     r2,[r8,#2]
;;;240    	if(ptr_can1_tx_wr>=8)ptr_can1_tx_wr=0;
000298  2a08              CMP      r2,#8
00029a  d300              BCC      |L1.670|
00029c  709e              STRB     r6,[r3,#2]
                  |L1.670|
;;;241    	
;;;242    	can1_info[ptr_can1_tx_wr]=(((long)(num-16))<<16)&0x000f0000UL;
00029e  3910              SUBS     r1,r1,#0x10
0002a0  f44f2270          MOV      r2,#0xf0000
0002a4  ea024301          AND      r3,r2,r1,LSL #16
0002a8  f8981002          LDRB     r1,[r8,#2]  ; ptr_can1_tx_wr
0002ac  4642              MOV      r2,r8
0002ae  f8453021          STR      r3,[r5,r1,LSL #2]
;;;243    	can1_id[ptr_can1_tx_wr]=0x0000009eUL;
0002b2  f8497021          STR      r7,[r9,r1,LSL #2]
;;;244    	*((char*)&can1_data[ptr_can1_tx_wr])=ptr[16];
0002b6  7c07              LDRB     r7,[r0,#0x10]
0002b8  f80b7021          STRB     r7,[r11,r1,LSL #2]
;;;245    	*(((char*)&can1_data[ptr_can1_tx_wr])+1)=ptr[17];
0002bc  eb0b0381          ADD      r3,r11,r1,LSL #2
0002c0  7c47              LDRB     r7,[r0,#0x11]
0002c2  705f              STRB     r7,[r3,#1]
;;;246    	*(((char*)&can1_data[ptr_can1_tx_wr])+2)=ptr[18];
0002c4  7c87              LDRB     r7,[r0,#0x12]
0002c6  709f              STRB     r7,[r3,#2]
;;;247    	*(((char*)&can1_data[ptr_can1_tx_wr])+3)=ptr[19];
0002c8  7cc7              LDRB     r7,[r0,#0x13]
0002ca  70df              STRB     r7,[r3,#3]
;;;248    	*((char*)&can1_datb[ptr_can1_tx_wr])=ptr[20];
0002cc  7d03              LDRB     r3,[r0,#0x14]
0002ce  f8043021          STRB     r3,[r4,r1,LSL #2]
;;;249    	*(((char*)&can1_datb[ptr_can1_tx_wr])+1)=ptr[21];
0002d2  eb0e0481          ADD      r4,lr,r1,LSL #2
0002d6  7d43              LDRB     r3,[r0,#0x15]
0002d8  7063              STRB     r3,[r4,#1]
;;;250    	*(((char*)&can1_datb[ptr_can1_tx_wr])+2)=ptr[22];
0002da  e000              B        |L1.734|
                  |L1.732|
0002dc  e007              B        |L1.750|
                  |L1.734|
0002de  7d83              LDRB     r3,[r0,#0x16]
0002e0  70a3              STRB     r3,[r4,#2]
;;;251    	*(((char*)&can1_datb[ptr_can1_tx_wr])+3)=ptr[23];	
0002e2  7dc0              LDRB     r0,[r0,#0x17]
0002e4  70e0              STRB     r0,[r4,#3]
;;;252    	ptr_can1_tx_wr++;
0002e6  1c49              ADDS     r1,r1,#1
0002e8  b2c8              UXTB     r0,r1
0002ea  7090              STRB     r0,[r2,#2]
;;;253    	if(ptr_can1_tx_wr>=8)ptr_can1_tx_wr=0;	
0002ec  e0b0              B        |L1.1104|
                  |L1.750|
;;;254    	}	
;;;255    
;;;256    else if(num<=32)
0002ee  2920              CMP      r1,#0x20
0002f0  d87d              BHI      |L1.1006|
;;;257    	{
;;;258    	can1_info[ptr_can1_tx_wr]=(8UL<<16)&0x000f0000UL;
;;;259    	can1_id[ptr_can1_tx_wr]=0x0000009eUL;
0002f2  f8df811c          LDR      r8,|L1.1040|
0002f6  f8457022          STR      r7,[r5,r2,LSL #2]     ;258
0002fa  f1080820          ADD      r8,r8,#0x20
0002fe  f04f0c9e          MOV      r12,#0x9e
000302  f848c022          STR      r12,[r8,r2,LSL #2]
;;;260    	*((char*)&can1_data[ptr_can1_tx_wr])=ptr[0];
000306  f8908000          LDRB     r8,[r0,#0]
00030a  f80b8022          STRB     r8,[r11,r2,LSL #2]
;;;261    	*(((char*)&can1_data[ptr_can1_tx_wr])+1)=ptr[1];
00030e  f890c001          LDRB     r12,[r0,#1]
000312  f884c001          STRB     r12,[r4,#1]
;;;262    	*(((char*)&can1_data[ptr_can1_tx_wr])+2)=ptr[2];
000316  f890c002          LDRB     r12,[r0,#2]
00031a  f884c002          STRB     r12,[r4,#2]
;;;263    	*(((char*)&can1_data[ptr_can1_tx_wr])+3)=ptr[3];
00031e  f890c003          LDRB     r12,[r0,#3]
000322  f884c003          STRB     r12,[r4,#3]
;;;264    	*((char*)&can1_datb[ptr_can1_tx_wr])=ptr[4];
000326  f890c004          LDRB     r12,[r0,#4]
00032a  f80ec022          STRB     r12,[lr,r2,LSL #2]
;;;265    	*(((char*)&can1_datb[ptr_can1_tx_wr])+1)=ptr[5];
00032e  7942              LDRB     r2,[r0,#5]
000330  705a              STRB     r2,[r3,#1]
;;;266    	*(((char*)&can1_datb[ptr_can1_tx_wr])+2)=ptr[6];
000332  7982              LDRB     r2,[r0,#6]
000334  709a              STRB     r2,[r3,#2]
;;;267    	*(((char*)&can1_datb[ptr_can1_tx_wr])+3)=ptr[7];	
000336  79c2              LDRB     r2,[r0,#7]
000338  70da              STRB     r2,[r3,#3]
;;;268    	ptr_can1_tx_wr++;
00033a  4653              MOV      r3,r10
00033c  f88a9002          STRB     r9,[r10,#2]
;;;269    	if(ptr_can1_tx_wr>=8)ptr_can1_tx_wr=0;
000340  f1b90f08          CMP      r9,#8
000344  d300              BCC      |L1.840|
000346  709e              STRB     r6,[r3,#2]
                  |L1.840|
;;;270    
;;;271    	can1_info[ptr_can1_tx_wr]=(8UL<<16)&0x000f0000UL;
000348  f89a2002          LDRB     r2,[r10,#2]  ; ptr_can1_tx_wr
;;;272    	can1_id[ptr_can1_tx_wr]=0x0000009eUL;
00034c  4b30              LDR      r3,|L1.1040|
00034e  f04f0c9e          MOV      r12,#0x9e
000352  3320              ADDS     r3,r3,#0x20
000354  f8457022          STR      r7,[r5,r2,LSL #2]     ;271
000358  f843c022          STR      r12,[r3,r2,LSL #2]
;;;273    	*((char*)&can1_data[ptr_can1_tx_wr])=ptr[8];
00035c  7a04              LDRB     r4,[r0,#8]
00035e  f80b4022          STRB     r4,[r11,r2,LSL #2]
;;;274    	*(((char*)&can1_data[ptr_can1_tx_wr])+1)=ptr[9];
000362  eb0b0382          ADD      r3,r11,r2,LSL #2
000366  7a44              LDRB     r4,[r0,#9]
000368  705c              STRB     r4,[r3,#1]
;;;275    	*(((char*)&can1_data[ptr_can1_tx_wr])+2)=ptr[10];
00036a  7a84              LDRB     r4,[r0,#0xa]
00036c  709c              STRB     r4,[r3,#2]
;;;276    	*(((char*)&can1_data[ptr_can1_tx_wr])+3)=ptr[11];
00036e  7ac4              LDRB     r4,[r0,#0xb]
000370  70dc              STRB     r4,[r3,#3]
;;;277    	*((char*)&can1_datb[ptr_can1_tx_wr])=ptr[12];
000372  7b04              LDRB     r4,[r0,#0xc]
000374  f80e4022          STRB     r4,[lr,r2,LSL #2]
;;;278    	*(((char*)&can1_datb[ptr_can1_tx_wr])+1)=ptr[13];
000378  eb0e0382          ADD      r3,lr,r2,LSL #2
00037c  7b44              LDRB     r4,[r0,#0xd]
00037e  705c              STRB     r4,[r3,#1]
;;;279    	*(((char*)&can1_datb[ptr_can1_tx_wr])+2)=ptr[14];
000380  7b84              LDRB     r4,[r0,#0xe]
000382  709c              STRB     r4,[r3,#2]
;;;280    	*(((char*)&can1_datb[ptr_can1_tx_wr])+3)=ptr[15];	
000384  7bc4              LDRB     r4,[r0,#0xf]
;;;281    	ptr_can1_tx_wr++;
000386  1c52              ADDS     r2,r2,#1
000388  46d0              MOV      r8,r10                ;271
00038a  70dc              STRB     r4,[r3,#3]            ;280
00038c  b2d2              UXTB     r2,r2
00038e  46d9              MOV      r9,r11                ;273
000390  4643              MOV      r3,r8
000392  f8882002          STRB     r2,[r8,#2]
;;;282    	if(ptr_can1_tx_wr>=8)ptr_can1_tx_wr=0;
000396  2a08              CMP      r2,#8
000398  d300              BCC      |L1.924|
00039a  709e              STRB     r6,[r3,#2]
                  |L1.924|
;;;283    	
;;;284    	can1_info[ptr_can1_tx_wr]=(8UL<<16)&0x000f0000UL;
00039c  f8982002          LDRB     r2,[r8,#2]  ; ptr_can1_tx_wr
;;;285    	can1_id[ptr_can1_tx_wr]=0x0000009eUL;
0003a0  4b1b              LDR      r3,|L1.1040|
0003a2  f8457022          STR      r7,[r5,r2,LSL #2]     ;284
0003a6  3320              ADDS     r3,r3,#0x20
;;;286    	*((char*)&can1_data[ptr_can1_tx_wr])=ptr[16];
;;;287    	*(((char*)&can1_data[ptr_can1_tx_wr])+1)=ptr[17];
;;;288    	*(((char*)&can1_data[ptr_can1_tx_wr])+2)=ptr[18];
;;;289    	*(((char*)&can1_data[ptr_can1_tx_wr])+3)=ptr[19];
;;;290    	*((char*)&can1_datb[ptr_can1_tx_wr])=ptr[20];
;;;291    	*(((char*)&can1_datb[ptr_can1_tx_wr])+1)=ptr[21];
0003a8  eb0e0782          ADD      r7,lr,r2,LSL #2
0003ac  f843c022          STR      r12,[r3,r2,LSL #2]    ;285
0003b0  7c04              LDRB     r4,[r0,#0x10]         ;286
0003b2  f8094022          STRB     r4,[r9,r2,LSL #2]     ;286
0003b6  eb090382          ADD      r3,r9,r2,LSL #2       ;287
0003ba  7c44              LDRB     r4,[r0,#0x11]         ;287
0003bc  705c              STRB     r4,[r3,#1]            ;287
0003be  7c84              LDRB     r4,[r0,#0x12]         ;288
0003c0  709c              STRB     r4,[r3,#2]            ;288
0003c2  7cc4              LDRB     r4,[r0,#0x13]         ;289
0003c4  70dc              STRB     r4,[r3,#3]            ;289
0003c6  7d04              LDRB     r4,[r0,#0x14]         ;290
0003c8  f80e4022          STRB     r4,[lr,r2,LSL #2]     ;290
0003cc  7d44              LDRB     r4,[r0,#0x15]
0003ce  707c              STRB     r4,[r7,#1]
;;;292    	*(((char*)&can1_datb[ptr_can1_tx_wr])+2)=ptr[22];
0003d0  7d84              LDRB     r4,[r0,#0x16]
0003d2  70bc              STRB     r4,[r7,#2]
;;;293    	*(((char*)&can1_datb[ptr_can1_tx_wr])+3)=ptr[23];	
0003d4  7dc4              LDRB     r4,[r0,#0x17]
;;;294    	ptr_can1_tx_wr++;
0003d6  1c52              ADDS     r2,r2,#1
0003d8  70fc              STRB     r4,[r7,#3]            ;293
0003da  b2d2              UXTB     r2,r2
0003dc  4673              MOV      r3,lr                 ;290
0003de  4644              MOV      r4,r8
0003e0  f8882002          STRB     r2,[r8,#2]
;;;295    	if(ptr_can1_tx_wr>=8)ptr_can1_tx_wr=0;
0003e4  2a08              CMP      r2,#8
0003e6  d300              BCC      |L1.1002|
0003e8  70a6              STRB     r6,[r4,#2]
                  |L1.1002|
;;;296    	
;;;297    	can1_info[ptr_can1_tx_wr]=(((long)(num-24))<<16)&0x000f0000UL;
0003ea  3918              SUBS     r1,r1,#0x18
0003ec  e000              B        |L1.1008|
                  |L1.1006|
0003ee  e033              B        |L1.1112|
                  |L1.1008|
0003f0  f44f2270          MOV      r2,#0xf0000
0003f4  ea024201          AND      r2,r2,r1,LSL #16
0003f8  4644              MOV      r4,r8
0003fa  f8981002          LDRB     r1,[r8,#2]  ; ptr_can1_tx_wr
0003fe  e009              B        |L1.1044|
                  |L1.1024|
                          DCD      ||.bss||+0x124
                  |L1.1028|
                          DCD      ||.constdata||
                  |L1.1032|
                          DCD      ||.constdata||+0x100
                  |L1.1036|
                          DCD      ||.data||
                  |L1.1040|
                          DCD      ||.bss||
                  |L1.1044|
000414  f8452021          STR      r2,[r5,r1,LSL #2]
;;;298    	can1_id[ptr_can1_tx_wr]=0x0000009eUL;
000418  4aff              LDR      r2,|L1.2072|
00041a  f842c021          STR      r12,[r2,r1,LSL #2]
;;;299    	*((char*)&can1_data[ptr_can1_tx_wr])=ptr[24];
00041e  7e07              LDRB     r7,[r0,#0x18]
000420  f8097021          STRB     r7,[r9,r1,LSL #2]
;;;300    	*(((char*)&can1_data[ptr_can1_tx_wr])+1)=ptr[25];
000424  eb090281          ADD      r2,r9,r1,LSL #2
000428  7e47              LDRB     r7,[r0,#0x19]
00042a  7057              STRB     r7,[r2,#1]
;;;301    	*(((char*)&can1_data[ptr_can1_tx_wr])+2)=ptr[26];
00042c  7e87              LDRB     r7,[r0,#0x1a]
00042e  7097              STRB     r7,[r2,#2]
;;;302    	*(((char*)&can1_data[ptr_can1_tx_wr])+3)=ptr[27];
000430  7ec7              LDRB     r7,[r0,#0x1b]
000432  70d7              STRB     r7,[r2,#3]
;;;303    	*((char*)&can1_datb[ptr_can1_tx_wr])=ptr[28];
000434  7f02              LDRB     r2,[r0,#0x1c]
000436  f8032021          STRB     r2,[r3,r1,LSL #2]
;;;304    	*(((char*)&can1_datb[ptr_can1_tx_wr])+1)=ptr[29];
00043a  eb0e0381          ADD      r3,lr,r1,LSL #2
00043e  7f42              LDRB     r2,[r0,#0x1d]
000440  705a              STRB     r2,[r3,#1]
;;;305    	*(((char*)&can1_datb[ptr_can1_tx_wr])+2)=ptr[30];
000442  7f82              LDRB     r2,[r0,#0x1e]
000444  709a              STRB     r2,[r3,#2]
;;;306    	*(((char*)&can1_datb[ptr_can1_tx_wr])+3)=ptr[31];	
000446  7fc0              LDRB     r0,[r0,#0x1f]
000448  70d8              STRB     r0,[r3,#3]
;;;307    	ptr_can1_tx_wr++;
00044a  1c49              ADDS     r1,r1,#1
00044c  b2c8              UXTB     r0,r1
00044e  70a0              STRB     r0,[r4,#2]
                  |L1.1104|
;;;308    	if(ptr_can1_tx_wr>=8)ptr_can1_tx_wr=0;	
000450  2808              CMP      r0,#8
000452  d301              BCC      |L1.1112|
000454  f8886002          STRB     r6,[r8,#2]
                  |L1.1112|
;;;309    	}	
;;;310    
;;;311    
;;;312    if(bOUT_FREE)
000458  f89a1000          LDRB     r1,[r10,#0]  ; bOUT_FREE
00045c  4650              MOV      r0,r10
00045e  2900              CMP      r1,#0
000460  d018              BEQ      |L1.1172|
;;;313    	{
;;;314    	LPC_CAN1->TFI1=can1_info[ptr_can1_tx_rd];
000462  78c1              LDRB     r1,[r0,#3]  ; ptr_can1_tx_rd
000464  4aed              LDR      r2,|L1.2076|
000466  f8553021          LDR      r3,[r5,r1,LSL #2]
00046a  6313              STR      r3,[r2,#0x30]
;;;315         LPC_CAN1->TID1=can1_id[ptr_can1_tx_rd];
00046c  4bea              LDR      r3,|L1.2072|
00046e  f8533021          LDR      r3,[r3,r1,LSL #2]
000472  6353              STR      r3,[r2,#0x34]
;;;316         LPC_CAN1->TDA1=can1_data[ptr_can1_tx_rd];
000474  f85b3021          LDR      r3,[r11,r1,LSL #2]
000478  6393              STR      r3,[r2,#0x38]
;;;317         LPC_CAN1->TDB1=can1_datb[ptr_can1_tx_rd];
00047a  f85e3021          LDR      r3,[lr,r1,LSL #2]
00047e  63d3              STR      r3,[r2,#0x3c]
;;;318         LPC_CAN1->CMR=0x00000021;
000480  2321              MOVS     r3,#0x21
000482  6053              STR      r3,[r2,#4]
;;;319         ptr_can1_tx_rd++;
000484  1c49              ADDS     r1,r1,#1
000486  b2c9              UXTB     r1,r1
000488  70c1              STRB     r1,[r0,#3]
;;;320         if(ptr_can1_tx_rd>=8)ptr_can1_tx_rd=0;
00048a  2908              CMP      r1,#8
00048c  d300              BCC      |L1.1168|
00048e  70c6              STRB     r6,[r0,#3]
                  |L1.1168|
;;;321         bOUT_FREE=0;	
000490  f88a6000          STRB     r6,[r10,#0]
                  |L1.1172|
;;;322    	}
;;;323    
;;;324    }	
000494  e8bd8ff0          POP      {r4-r11,pc}
;;;325    
                          ENDP

                  can2_out_adr PROC
;;;326    //-----------------------------------------------
;;;327    void can2_out_adr(char* ptr,char num)
000498  e92d4ff0          PUSH     {r4-r11,lr}
;;;328    {
;;;329    
;;;330    if(num<=8)
;;;331    	{
;;;332    	can2_info[ptr_can2_tx_wr]=(((long)num)<<16)&0x000f0000UL;
00049c  f8dfa380          LDR      r10,|L1.2080|
0004a0  4ddd              LDR      r5,|L1.2072|
;;;333    	can2_id[ptr_can2_tx_wr]=0x0000009eUL;
;;;334    	*((char*)&can2_data[ptr_can2_tx_wr])=ptr[0];
;;;335    	*(((char*)&can2_data[ptr_can2_tx_wr])+1)=ptr[1];
;;;336    	*(((char*)&can2_data[ptr_can2_tx_wr])+2)=ptr[2];
;;;337    	*(((char*)&can2_data[ptr_can2_tx_wr])+3)=ptr[3];
;;;338    	*((char*)&can2_datb[ptr_can2_tx_wr])=ptr[4];
;;;339    	*(((char*)&can2_datb[ptr_can2_tx_wr])+1)=ptr[5];
;;;340    	*(((char*)&can2_datb[ptr_can2_tx_wr])+2)=ptr[6];
;;;341    	*(((char*)&can2_datb[ptr_can2_tx_wr])+3)=ptr[7];	
;;;342    	ptr_can2_tx_wr++;
;;;343    	if(ptr_can2_tx_wr>=8)ptr_can2_tx_wr=0;
0004a2  2600              MOVS     r6,#0
0004a4  f89a2004          LDRB     r2,[r10,#4]           ;332
0004a8  3560              ADDS     r5,r5,#0x60           ;332
0004aa  1c53              ADDS     r3,r2,#1              ;342
0004ac  b2db              UXTB     r3,r3                 ;342
0004ae  4699              MOV      r9,r3                 ;342
0004b0  f1050b40          ADD      r11,r5,#0x40          ;334
0004b4  f1050e60          ADD      lr,r5,#0x60           ;338
0004b8  f04f0c9e          MOV      r12,#0x9e             ;333
0004bc  eb0e0382          ADD      r3,lr,r2,LSL #2       ;338
0004c0  eb0b0482          ADD      r4,r11,r2,LSL #2      ;334
0004c4  2908              CMP      r1,#8                 ;330
0004c6  d824              BHI      |L1.1298|
0004c8  f44f2770          MOV      r7,#0xf0000           ;332
0004cc  ea074101          AND      r1,r7,r1,LSL #16      ;332
0004d0  f8451022          STR      r1,[r5,r2,LSL #2]     ;332
0004d4  f1050120          ADD      r1,r5,#0x20           ;333
0004d8  46d0              MOV      r8,r10                ;332
0004da  f841c022          STR      r12,[r1,r2,LSL #2]    ;333
0004de  7807              LDRB     r7,[r0,#0]            ;334
0004e0  f80b7022          STRB     r7,[r11,r2,LSL #2]    ;334
0004e4  7841              LDRB     r1,[r0,#1]            ;335
0004e6  7061              STRB     r1,[r4,#1]            ;335
0004e8  7881              LDRB     r1,[r0,#2]            ;336
0004ea  70a1              STRB     r1,[r4,#2]            ;336
0004ec  78c1              LDRB     r1,[r0,#3]            ;337
0004ee  70e1              STRB     r1,[r4,#3]            ;337
0004f0  7904              LDRB     r4,[r0,#4]            ;338
0004f2  f80e4022          STRB     r4,[lr,r2,LSL #2]     ;338
0004f6  7941              LDRB     r1,[r0,#5]            ;339
0004f8  7059              STRB     r1,[r3,#1]            ;339
0004fa  7981              LDRB     r1,[r0,#6]            ;340
0004fc  7099              STRB     r1,[r3,#2]            ;340
0004fe  79c0              LDRB     r0,[r0,#7]            ;341
000500  70d8              STRB     r0,[r3,#3]            ;341
000502  f8889004          STRB     r9,[r8,#4]            ;342
000506  f1b90f08          CMP      r9,#8
00050a  d301              BCC      |L1.1296|
00050c  f88a6004          STRB     r6,[r10,#4]
                  |L1.1296|
000510  e196              B        |L1.2112|
                  |L1.1298|
;;;344    	}
;;;345    	
;;;346    else if(num<=16)
;;;347    	{
;;;348    	
;;;349    	can2_info[ptr_can2_tx_wr]=(8UL<<16)&0x000f0000UL;
000512  f44f2700          MOV      r7,#0x80000
000516  2910              CMP      r1,#0x10              ;346
000518  d856              BHI      |L1.1480|
;;;350    	can2_id[ptr_can2_tx_wr]=0x0000009eUL;
00051a  f8dfc2fc          LDR      r12,|L1.2072|
00051e  f8457022          STR      r7,[r5,r2,LSL #2]     ;349
000522  279e              MOVS     r7,#0x9e
000524  f10c0c80          ADD      r12,r12,#0x80
;;;351    	*((char*)&can2_data[ptr_can2_tx_wr])=ptr[0];
;;;352    	*(((char*)&can2_data[ptr_can2_tx_wr])+1)=ptr[1];
;;;353    	*(((char*)&can2_data[ptr_can2_tx_wr])+2)=ptr[2];
;;;354    	*(((char*)&can2_data[ptr_can2_tx_wr])+3)=ptr[3];
;;;355    	*((char*)&can2_datb[ptr_can2_tx_wr])=ptr[4];
;;;356    	*(((char*)&can2_datb[ptr_can2_tx_wr])+1)=ptr[5];
;;;357    	*(((char*)&can2_datb[ptr_can2_tx_wr])+2)=ptr[6];
;;;358    	*(((char*)&can2_datb[ptr_can2_tx_wr])+3)=ptr[7];	
;;;359    	ptr_can2_tx_wr++;
;;;360    	if(ptr_can2_tx_wr>=8)ptr_can2_tx_wr=0;
000528  f1b90f08          CMP      r9,#8
00052c  f84c7022          STR      r7,[r12,r2,LSL #2]    ;350
000530  f8908000          LDRB     r8,[r0,#0]            ;351
000534  f80b8022          STRB     r8,[r11,r2,LSL #2]    ;351
000538  f8908001          LDRB     r8,[r0,#1]            ;352
00053c  f8848001          STRB     r8,[r4,#1]            ;352
000540  f8908002          LDRB     r8,[r0,#2]            ;353
000544  f8848002          STRB     r8,[r4,#2]            ;353
000548  f8908003          LDRB     r8,[r0,#3]            ;354
00054c  f8848003          STRB     r8,[r4,#3]            ;354
000550  f8908004          LDRB     r8,[r0,#4]            ;355
000554  f80e8022          STRB     r8,[lr,r2,LSL #2]     ;355
000558  7942              LDRB     r2,[r0,#5]            ;356
00055a  705a              STRB     r2,[r3,#1]            ;356
00055c  7982              LDRB     r2,[r0,#6]            ;357
00055e  709a              STRB     r2,[r3,#2]            ;357
000560  79c2              LDRB     r2,[r0,#7]            ;358
000562  70da              STRB     r2,[r3,#3]            ;358
000564  465f              MOV      r7,r11                ;351
000566  4674              MOV      r4,lr                 ;355
000568  4653              MOV      r3,r10                ;359
00056a  f88a9004          STRB     r9,[r10,#4]           ;359
00056e  d300              BCC      |L1.1394|
000570  711e              STRB     r6,[r3,#4]
                  |L1.1394|
;;;361    	
;;;362    	can2_info[ptr_can2_tx_wr]=(((long)(num-8))<<16)&0x000f0000UL;
000572  3908              SUBS     r1,r1,#8
000574  f44f2270          MOV      r2,#0xf0000
000578  ea024201          AND      r2,r2,r1,LSL #16
00057c  f89a1004          LDRB     r1,[r10,#4]  ; ptr_can2_tx_wr
;;;363    	can2_id[ptr_can2_tx_wr]=0x0000009eUL;
;;;364    	*((char*)&can2_data[ptr_can2_tx_wr])=ptr[8];
;;;365    	*(((char*)&can2_data[ptr_can2_tx_wr])+1)=ptr[9];
000580  eb0b0381          ADD      r3,r11,r1,LSL #2
000584  f8452021          STR      r2,[r5,r1,LSL #2]     ;362
000588  229e              MOVS     r2,#0x9e              ;363
00058a  f84c2021          STR      r2,[r12,r1,LSL #2]    ;363
00058e  7a02              LDRB     r2,[r0,#8]            ;364
000590  f8072021          STRB     r2,[r7,r1,LSL #2]     ;364
000594  7a42              LDRB     r2,[r0,#9]
000596  705a              STRB     r2,[r3,#1]
;;;366    	*(((char*)&can2_data[ptr_can2_tx_wr])+2)=ptr[10];
000598  7a82              LDRB     r2,[r0,#0xa]
00059a  709a              STRB     r2,[r3,#2]
;;;367    	*(((char*)&can2_data[ptr_can2_tx_wr])+3)=ptr[11];
00059c  7ac2              LDRB     r2,[r0,#0xb]
00059e  70da              STRB     r2,[r3,#3]
;;;368    	*((char*)&can2_datb[ptr_can2_tx_wr])=ptr[12];
0005a0  7b02              LDRB     r2,[r0,#0xc]
0005a2  f8042021          STRB     r2,[r4,r1,LSL #2]
;;;369    	*(((char*)&can2_datb[ptr_can2_tx_wr])+1)=ptr[13];
0005a6  eb0e0281          ADD      r2,lr,r1,LSL #2
0005aa  7b43              LDRB     r3,[r0,#0xd]
0005ac  7053              STRB     r3,[r2,#1]
;;;370    	*(((char*)&can2_datb[ptr_can2_tx_wr])+2)=ptr[14];
0005ae  7b83              LDRB     r3,[r0,#0xe]
0005b0  7093              STRB     r3,[r2,#2]
;;;371    	*(((char*)&can2_datb[ptr_can2_tx_wr])+3)=ptr[15];	
0005b2  7bc0              LDRB     r0,[r0,#0xf]
0005b4  70d0              STRB     r0,[r2,#3]
;;;372    	ptr_can2_tx_wr++;
0005b6  1c49              ADDS     r1,r1,#1
0005b8  b2c8              UXTB     r0,r1
0005ba  4651              MOV      r1,r10
0005bc  f88a0004          STRB     r0,[r10,#4]
;;;373    	if(ptr_can2_tx_wr>=8)ptr_can2_tx_wr=0;
0005c0  2808              CMP      r0,#8
0005c2  d3a5              BCC      |L1.1296|
0005c4  710e              STRB     r6,[r1,#4]
0005c6  e13b              B        |L1.2112|
                  |L1.1480|
;;;374    		
;;;375    	}	
;;;376    
;;;377    else if(num<=24)
0005c8  2918              CMP      r1,#0x18
0005ca  d87e              BHI      |L1.1738|
;;;378    	{
;;;379    	can2_info[ptr_can2_tx_wr]=(8UL<<16)&0x000f0000UL;
;;;380    	can2_id[ptr_can2_tx_wr]=0x0000009eUL;
0005cc  f8df8248          LDR      r8,|L1.2072|
0005d0  f8457022          STR      r7,[r5,r2,LSL #2]     ;379
0005d4  f1080880          ADD      r8,r8,#0x80
0005d8  f04f0c9e          MOV      r12,#0x9e
0005dc  f848c022          STR      r12,[r8,r2,LSL #2]
;;;381    	*((char*)&can2_data[ptr_can2_tx_wr])=ptr[0];
0005e0  f8908000          LDRB     r8,[r0,#0]
0005e4  f80b8022          STRB     r8,[r11,r2,LSL #2]
;;;382    	*(((char*)&can2_data[ptr_can2_tx_wr])+1)=ptr[1];
0005e8  f890c001          LDRB     r12,[r0,#1]
0005ec  f884c001          STRB     r12,[r4,#1]
;;;383    	*(((char*)&can2_data[ptr_can2_tx_wr])+2)=ptr[2];
0005f0  f890c002          LDRB     r12,[r0,#2]
0005f4  f884c002          STRB     r12,[r4,#2]
;;;384    	*(((char*)&can2_data[ptr_can2_tx_wr])+3)=ptr[3];
0005f8  f890c003          LDRB     r12,[r0,#3]
0005fc  f884c003          STRB     r12,[r4,#3]
;;;385    	*((char*)&can2_datb[ptr_can2_tx_wr])=ptr[4];
000600  f890c004          LDRB     r12,[r0,#4]
000604  f80ec022          STRB     r12,[lr,r2,LSL #2]
;;;386    	*(((char*)&can2_datb[ptr_can2_tx_wr])+1)=ptr[5];
000608  7942              LDRB     r2,[r0,#5]
00060a  705a              STRB     r2,[r3,#1]
;;;387    	*(((char*)&can2_datb[ptr_can2_tx_wr])+2)=ptr[6];
00060c  7982              LDRB     r2,[r0,#6]
00060e  709a              STRB     r2,[r3,#2]
;;;388    	*(((char*)&can2_datb[ptr_can2_tx_wr])+3)=ptr[7];	
000610  79c2              LDRB     r2,[r0,#7]
000612  70da              STRB     r2,[r3,#3]
000614  4674              MOV      r4,lr                 ;385
;;;389    	ptr_can2_tx_wr++;
000616  4653              MOV      r3,r10
000618  f88a9004          STRB     r9,[r10,#4]
;;;390    	if(ptr_can2_tx_wr>=8)ptr_can2_tx_wr=0;
00061c  f1b90f08          CMP      r9,#8
000620  d300              BCC      |L1.1572|
000622  711e              STRB     r6,[r3,#4]
                  |L1.1572|
;;;391    
;;;392    	can2_info[ptr_can2_tx_wr]=(8UL<<16)&0x000f0000UL;
000624  f89a2004          LDRB     r2,[r10,#4]  ; ptr_can2_tx_wr
;;;393    	can2_id[ptr_can2_tx_wr]=0x0000009eUL;
000628  f8df91ec          LDR      r9,|L1.2072|
;;;394    	*((char*)&can2_data[ptr_can2_tx_wr])=ptr[8];
;;;395    	*(((char*)&can2_data[ptr_can2_tx_wr])+1)=ptr[9];
00062c  eb0b0382          ADD      r3,r11,r2,LSL #2
000630  f8457022          STR      r7,[r5,r2,LSL #2]     ;392
000634  f1090980          ADD      r9,r9,#0x80           ;393
000638  279e              MOVS     r7,#0x9e              ;393
00063a  f8497022          STR      r7,[r9,r2,LSL #2]     ;393
00063e  f890c008          LDRB     r12,[r0,#8]           ;394
000642  f80bc022          STRB     r12,[r11,r2,LSL #2]   ;394
000646  f890c009          LDRB     r12,[r0,#9]
00064a  f883c001          STRB     r12,[r3,#1]
;;;396    	*(((char*)&can2_data[ptr_can2_tx_wr])+2)=ptr[10];
00064e  f890c00a          LDRB     r12,[r0,#0xa]
000652  f883c002          STRB     r12,[r3,#2]
;;;397    	*(((char*)&can2_data[ptr_can2_tx_wr])+3)=ptr[11];
000656  f890c00b          LDRB     r12,[r0,#0xb]
00065a  f883c003          STRB     r12,[r3,#3]
;;;398    	*((char*)&can2_datb[ptr_can2_tx_wr])=ptr[12];
00065e  7b03              LDRB     r3,[r0,#0xc]
000660  f8043022          STRB     r3,[r4,r2,LSL #2]
;;;399    	*(((char*)&can2_datb[ptr_can2_tx_wr])+1)=ptr[13];
000664  eb040c82          ADD      r12,r4,r2,LSL #2
000668  7b43              LDRB     r3,[r0,#0xd]
00066a  f88c3001          STRB     r3,[r12,#1]
;;;400    	*(((char*)&can2_datb[ptr_can2_tx_wr])+2)=ptr[14];
00066e  7b83              LDRB     r3,[r0,#0xe]
000670  f88c3002          STRB     r3,[r12,#2]
;;;401    	*(((char*)&can2_datb[ptr_can2_tx_wr])+3)=ptr[15];	
000674  7bc3              LDRB     r3,[r0,#0xf]
;;;402    	ptr_can2_tx_wr++;
000676  1c52              ADDS     r2,r2,#1
000678  46d0              MOV      r8,r10                ;392
00067a  f88c3003          STRB     r3,[r12,#3]           ;401
00067e  b2d2              UXTB     r2,r2
000680  4643              MOV      r3,r8
000682  f8882004          STRB     r2,[r8,#4]
;;;403    	if(ptr_can2_tx_wr>=8)ptr_can2_tx_wr=0;
000686  2a08              CMP      r2,#8
000688  d300              BCC      |L1.1676|
00068a  711e              STRB     r6,[r3,#4]
                  |L1.1676|
;;;404    	
;;;405    	can2_info[ptr_can2_tx_wr]=(((long)(num-16))<<16)&0x000f0000UL;
00068c  3910              SUBS     r1,r1,#0x10
00068e  f44f2270          MOV      r2,#0xf0000
000692  ea024301          AND      r3,r2,r1,LSL #16
000696  f8981004          LDRB     r1,[r8,#4]  ; ptr_can2_tx_wr
00069a  4642              MOV      r2,r8
00069c  f8453021          STR      r3,[r5,r1,LSL #2]
;;;406    	can2_id[ptr_can2_tx_wr]=0x0000009eUL;
0006a0  f8497021          STR      r7,[r9,r1,LSL #2]
;;;407    	*((char*)&can2_data[ptr_can2_tx_wr])=ptr[16];
0006a4  7c07              LDRB     r7,[r0,#0x10]
0006a6  f80b7021          STRB     r7,[r11,r1,LSL #2]
;;;408    	*(((char*)&can2_data[ptr_can2_tx_wr])+1)=ptr[17];
0006aa  eb0b0381          ADD      r3,r11,r1,LSL #2
0006ae  7c47              LDRB     r7,[r0,#0x11]
0006b0  705f              STRB     r7,[r3,#1]
;;;409    	*(((char*)&can2_data[ptr_can2_tx_wr])+2)=ptr[18];
0006b2  7c87              LDRB     r7,[r0,#0x12]
0006b4  709f              STRB     r7,[r3,#2]
;;;410    	*(((char*)&can2_data[ptr_can2_tx_wr])+3)=ptr[19];
0006b6  7cc7              LDRB     r7,[r0,#0x13]
0006b8  70df              STRB     r7,[r3,#3]
;;;411    	*((char*)&can2_datb[ptr_can2_tx_wr])=ptr[20];
0006ba  7d03              LDRB     r3,[r0,#0x14]
0006bc  f8043021          STRB     r3,[r4,r1,LSL #2]
;;;412    	*(((char*)&can2_datb[ptr_can2_tx_wr])+1)=ptr[21];
0006c0  eb0e0481          ADD      r4,lr,r1,LSL #2
0006c4  7d43              LDRB     r3,[r0,#0x15]
0006c6  7063              STRB     r3,[r4,#1]
;;;413    	*(((char*)&can2_datb[ptr_can2_tx_wr])+2)=ptr[22];
0006c8  e000              B        |L1.1740|
                  |L1.1738|
0006ca  e007              B        |L1.1756|
                  |L1.1740|
0006cc  7d83              LDRB     r3,[r0,#0x16]
0006ce  70a3              STRB     r3,[r4,#2]
;;;414    	*(((char*)&can2_datb[ptr_can2_tx_wr])+3)=ptr[23];	
0006d0  7dc0              LDRB     r0,[r0,#0x17]
0006d2  70e0              STRB     r0,[r4,#3]
;;;415    	ptr_can2_tx_wr++;
0006d4  1c49              ADDS     r1,r1,#1
0006d6  b2c8              UXTB     r0,r1
0006d8  7110              STRB     r0,[r2,#4]
;;;416    	if(ptr_can2_tx_wr>=8)ptr_can2_tx_wr=0;	
0006da  e0ad              B        |L1.2104|
                  |L1.1756|
;;;417    	}	
;;;418    
;;;419    else if(num<=32)
0006dc  2920              CMP      r1,#0x20
0006de  d87d              BHI      |L1.2012|
;;;420    	{
;;;421    	can2_info[ptr_can2_tx_wr]=(8UL<<16)&0x000f0000UL;
;;;422    	can2_id[ptr_can2_tx_wr]=0x0000009eUL;
0006e0  f8df8134          LDR      r8,|L1.2072|
0006e4  f8457022          STR      r7,[r5,r2,LSL #2]     ;421
0006e8  f1080880          ADD      r8,r8,#0x80
0006ec  f04f0c9e          MOV      r12,#0x9e
0006f0  f848c022          STR      r12,[r8,r2,LSL #2]
;;;423    	*((char*)&can2_data[ptr_can2_tx_wr])=ptr[0];
0006f4  f8908000          LDRB     r8,[r0,#0]
0006f8  f80b8022          STRB     r8,[r11,r2,LSL #2]
;;;424    	*(((char*)&can2_data[ptr_can2_tx_wr])+1)=ptr[1];
0006fc  f890c001          LDRB     r12,[r0,#1]
000700  f884c001          STRB     r12,[r4,#1]
;;;425    	*(((char*)&can2_data[ptr_can2_tx_wr])+2)=ptr[2];
000704  f890c002          LDRB     r12,[r0,#2]
000708  f884c002          STRB     r12,[r4,#2]
;;;426    	*(((char*)&can2_data[ptr_can2_tx_wr])+3)=ptr[3];
00070c  f890c003          LDRB     r12,[r0,#3]
000710  f884c003          STRB     r12,[r4,#3]
;;;427    	*((char*)&can2_datb[ptr_can2_tx_wr])=ptr[4];
000714  f890c004          LDRB     r12,[r0,#4]
000718  f80ec022          STRB     r12,[lr,r2,LSL #2]
;;;428    	*(((char*)&can2_datb[ptr_can2_tx_wr])+1)=ptr[5];
00071c  7942              LDRB     r2,[r0,#5]
00071e  705a              STRB     r2,[r3,#1]
;;;429    	*(((char*)&can2_datb[ptr_can2_tx_wr])+2)=ptr[6];
000720  7982              LDRB     r2,[r0,#6]
000722  709a              STRB     r2,[r3,#2]
;;;430    	*(((char*)&can2_datb[ptr_can2_tx_wr])+3)=ptr[7];	
000724  79c2              LDRB     r2,[r0,#7]
000726  70da              STRB     r2,[r3,#3]
;;;431    	ptr_can2_tx_wr++;
000728  4653              MOV      r3,r10
00072a  f88a9004          STRB     r9,[r10,#4]
;;;432    	if(ptr_can2_tx_wr>=8)ptr_can2_tx_wr=0;
00072e  f1b90f08          CMP      r9,#8
000732  d300              BCC      |L1.1846|
000734  711e              STRB     r6,[r3,#4]
                  |L1.1846|
;;;433    
;;;434    	can2_info[ptr_can2_tx_wr]=(8UL<<16)&0x000f0000UL;
000736  f89a2004          LDRB     r2,[r10,#4]  ; ptr_can2_tx_wr
;;;435    	can2_id[ptr_can2_tx_wr]=0x0000009eUL;
00073a  4b37              LDR      r3,|L1.2072|
00073c  f04f0c9e          MOV      r12,#0x9e
000740  3380              ADDS     r3,r3,#0x80
000742  f8457022          STR      r7,[r5,r2,LSL #2]     ;434
000746  f843c022          STR      r12,[r3,r2,LSL #2]
;;;436    	*((char*)&can2_data[ptr_can2_tx_wr])=ptr[8];
00074a  7a04              LDRB     r4,[r0,#8]
00074c  f80b4022          STRB     r4,[r11,r2,LSL #2]
;;;437    	*(((char*)&can2_data[ptr_can2_tx_wr])+1)=ptr[9];
000750  eb0b0382          ADD      r3,r11,r2,LSL #2
000754  7a44              LDRB     r4,[r0,#9]
000756  705c              STRB     r4,[r3,#1]
;;;438    	*(((char*)&can2_data[ptr_can2_tx_wr])+2)=ptr[10];
000758  7a84              LDRB     r4,[r0,#0xa]
00075a  709c              STRB     r4,[r3,#2]
;;;439    	*(((char*)&can2_data[ptr_can2_tx_wr])+3)=ptr[11];
00075c  7ac4              LDRB     r4,[r0,#0xb]
00075e  70dc              STRB     r4,[r3,#3]
;;;440    	*((char*)&can2_datb[ptr_can2_tx_wr])=ptr[12];
000760  7b04              LDRB     r4,[r0,#0xc]
000762  f80e4022          STRB     r4,[lr,r2,LSL #2]
;;;441    	*(((char*)&can2_datb[ptr_can2_tx_wr])+1)=ptr[13];
000766  eb0e0382          ADD      r3,lr,r2,LSL #2
00076a  7b44              LDRB     r4,[r0,#0xd]
00076c  705c              STRB     r4,[r3,#1]
;;;442    	*(((char*)&can2_datb[ptr_can2_tx_wr])+2)=ptr[14];
00076e  7b84              LDRB     r4,[r0,#0xe]
000770  709c              STRB     r4,[r3,#2]
;;;443    	*(((char*)&can2_datb[ptr_can2_tx_wr])+3)=ptr[15];	
000772  7bc4              LDRB     r4,[r0,#0xf]
;;;444    	ptr_can2_tx_wr++;
000774  1c52              ADDS     r2,r2,#1
000776  46d0              MOV      r8,r10                ;434
000778  70dc              STRB     r4,[r3,#3]            ;443
00077a  b2d2              UXTB     r2,r2
00077c  46d9              MOV      r9,r11                ;436
00077e  4643              MOV      r3,r8
000780  f8882004          STRB     r2,[r8,#4]
;;;445    	if(ptr_can2_tx_wr>=8)ptr_can2_tx_wr=0;
000784  2a08              CMP      r2,#8
000786  d300              BCC      |L1.1930|
000788  711e              STRB     r6,[r3,#4]
                  |L1.1930|
;;;446    	
;;;447    	can2_info[ptr_can2_tx_wr]=(8UL<<16)&0x000f0000UL;
00078a  f8982004          LDRB     r2,[r8,#4]  ; ptr_can2_tx_wr
;;;448    	can2_id[ptr_can2_tx_wr]=0x0000009eUL;
00078e  4b22              LDR      r3,|L1.2072|
000790  f8457022          STR      r7,[r5,r2,LSL #2]     ;447
000794  3380              ADDS     r3,r3,#0x80
;;;449    	*((char*)&can2_data[ptr_can2_tx_wr])=ptr[16];
;;;450    	*(((char*)&can2_data[ptr_can2_tx_wr])+1)=ptr[17];
;;;451    	*(((char*)&can2_data[ptr_can2_tx_wr])+2)=ptr[18];
;;;452    	*(((char*)&can2_data[ptr_can2_tx_wr])+3)=ptr[19];
;;;453    	*((char*)&can2_datb[ptr_can2_tx_wr])=ptr[20];
;;;454    	*(((char*)&can2_datb[ptr_can2_tx_wr])+1)=ptr[21];
000796  eb0e0782          ADD      r7,lr,r2,LSL #2
00079a  f843c022          STR      r12,[r3,r2,LSL #2]    ;448
00079e  7c04              LDRB     r4,[r0,#0x10]         ;449
0007a0  f8094022          STRB     r4,[r9,r2,LSL #2]     ;449
0007a4  eb090382          ADD      r3,r9,r2,LSL #2       ;450
0007a8  7c44              LDRB     r4,[r0,#0x11]         ;450
0007aa  705c              STRB     r4,[r3,#1]            ;450
0007ac  7c84              LDRB     r4,[r0,#0x12]         ;451
0007ae  709c              STRB     r4,[r3,#2]            ;451
0007b0  7cc4              LDRB     r4,[r0,#0x13]         ;452
0007b2  70dc              STRB     r4,[r3,#3]            ;452
0007b4  7d04              LDRB     r4,[r0,#0x14]         ;453
0007b6  f80e4022          STRB     r4,[lr,r2,LSL #2]     ;453
0007ba  7d44              LDRB     r4,[r0,#0x15]
0007bc  707c              STRB     r4,[r7,#1]
;;;455    	*(((char*)&can2_datb[ptr_can2_tx_wr])+2)=ptr[22];
0007be  7d84              LDRB     r4,[r0,#0x16]
0007c0  70bc              STRB     r4,[r7,#2]
;;;456    	*(((char*)&can2_datb[ptr_can2_tx_wr])+3)=ptr[23];	
0007c2  7dc4              LDRB     r4,[r0,#0x17]
;;;457    	ptr_can2_tx_wr++;
0007c4  1c52              ADDS     r2,r2,#1
0007c6  70fc              STRB     r4,[r7,#3]            ;456
0007c8  b2d2              UXTB     r2,r2
0007ca  4673              MOV      r3,lr                 ;453
0007cc  4644              MOV      r4,r8
0007ce  f8882004          STRB     r2,[r8,#4]
;;;458    	if(ptr_can2_tx_wr>=8)ptr_can2_tx_wr=0;
0007d2  2a08              CMP      r2,#8
0007d4  d300              BCC      |L1.2008|
0007d6  7126              STRB     r6,[r4,#4]
                  |L1.2008|
;;;459    	
;;;460    	can2_info[ptr_can2_tx_wr]=(((long)(num-24))<<16)&0x000f0000UL;
0007d8  3918              SUBS     r1,r1,#0x18
0007da  e000              B        |L1.2014|
                  |L1.2012|
0007dc  e030              B        |L1.2112|
                  |L1.2014|
0007de  f44f2270          MOV      r2,#0xf0000
0007e2  ea024201          AND      r2,r2,r1,LSL #16
0007e6  f8981004          LDRB     r1,[r8,#4]  ; ptr_can2_tx_wr
0007ea  4644              MOV      r4,r8
0007ec  f8452021          STR      r2,[r5,r1,LSL #2]
;;;461    	can2_id[ptr_can2_tx_wr]=0x0000009eUL;
0007f0  4a09              LDR      r2,|L1.2072|
0007f2  3280              ADDS     r2,r2,#0x80
0007f4  f842c021          STR      r12,[r2,r1,LSL #2]
;;;462    	*((char*)&can2_data[ptr_can2_tx_wr])=ptr[24];
0007f8  7e07              LDRB     r7,[r0,#0x18]
0007fa  f8097021          STRB     r7,[r9,r1,LSL #2]
;;;463    	*(((char*)&can2_data[ptr_can2_tx_wr])+1)=ptr[25];
0007fe  eb090281          ADD      r2,r9,r1,LSL #2
000802  7e47              LDRB     r7,[r0,#0x19]
000804  7057              STRB     r7,[r2,#1]
;;;464    	*(((char*)&can2_data[ptr_can2_tx_wr])+2)=ptr[26];
000806  7e87              LDRB     r7,[r0,#0x1a]
000808  7097              STRB     r7,[r2,#2]
;;;465    	*(((char*)&can2_data[ptr_can2_tx_wr])+3)=ptr[27];
00080a  7ec7              LDRB     r7,[r0,#0x1b]
00080c  70d7              STRB     r7,[r2,#3]
;;;466    	*((char*)&can2_datb[ptr_can2_tx_wr])=ptr[28];
00080e  7f02              LDRB     r2,[r0,#0x1c]
000810  f8032021          STRB     r2,[r3,r1,LSL #2]
;;;467    	*(((char*)&can2_datb[ptr_can2_tx_wr])+1)=ptr[29];
000814  7f42              LDRB     r2,[r0,#0x1d]
000816  e005              B        |L1.2084|
                  |L1.2072|
                          DCD      ||.bss||+0x20
                  |L1.2076|
                          DCD      0x40044000
                  |L1.2080|
                          DCD      ||.data||
                  |L1.2084|
000824  eb0e0381          ADD      r3,lr,r1,LSL #2
;;;468    	*(((char*)&can2_datb[ptr_can2_tx_wr])+2)=ptr[30];
;;;469    	*(((char*)&can2_datb[ptr_can2_tx_wr])+3)=ptr[31];	
;;;470    	ptr_can2_tx_wr++;
000828  1c49              ADDS     r1,r1,#1
00082a  705a              STRB     r2,[r3,#1]            ;467
00082c  7f82              LDRB     r2,[r0,#0x1e]         ;468
00082e  709a              STRB     r2,[r3,#2]            ;468
000830  7fc0              LDRB     r0,[r0,#0x1f]         ;469
000832  70d8              STRB     r0,[r3,#3]            ;469
000834  b2c8              UXTB     r0,r1
000836  7120              STRB     r0,[r4,#4]
                  |L1.2104|
;;;471    	if(ptr_can2_tx_wr>=8)ptr_can2_tx_wr=0;	
000838  2808              CMP      r0,#8
00083a  d301              BCC      |L1.2112|
00083c  f8886004          STRB     r6,[r8,#4]
                  |L1.2112|
;;;472    	}	
;;;473    
;;;474    
;;;475    if(bOUT_FREE2)
000840  f89a1001          LDRB     r1,[r10,#1]  ; bOUT_FREE2
000844  4650              MOV      r0,r10
000846  2900              CMP      r1,#0
000848  d018              BEQ      |L1.2172|
;;;476    	{
;;;477    	LPC_CAN2->TFI1=can2_info[ptr_can2_tx_rd];
00084a  7941              LDRB     r1,[r0,#5]  ; ptr_can2_tx_rd
00084c  4af9              LDR      r2,|L1.3124|
00084e  f8553021          LDR      r3,[r5,r1,LSL #2]
000852  6313              STR      r3,[r2,#0x30]
;;;478         LPC_CAN2->TID1=can2_id[ptr_can2_tx_rd];
000854  4bf8              LDR      r3,|L1.3128|
000856  f8533021          LDR      r3,[r3,r1,LSL #2]
00085a  6353              STR      r3,[r2,#0x34]
;;;479         LPC_CAN2->TDA1=can2_data[ptr_can2_tx_rd];
00085c  f85b3021          LDR      r3,[r11,r1,LSL #2]
000860  6393              STR      r3,[r2,#0x38]
;;;480         LPC_CAN2->TDB1=can2_datb[ptr_can2_tx_rd];
000862  f85e3021          LDR      r3,[lr,r1,LSL #2]
000866  63d3              STR      r3,[r2,#0x3c]
;;;481         LPC_CAN2->CMR=0x00000021;
000868  2321              MOVS     r3,#0x21
00086a  6053              STR      r3,[r2,#4]
;;;482         ptr_can2_tx_rd++;
00086c  1c49              ADDS     r1,r1,#1
00086e  b2c9              UXTB     r1,r1
000870  7141              STRB     r1,[r0,#5]
;;;483         if(ptr_can2_tx_rd>=8)ptr_can2_tx_rd=0;
000872  2908              CMP      r1,#8
000874  d300              BCC      |L1.2168|
000876  7146              STRB     r6,[r0,#5]
                  |L1.2168|
;;;484         bOUT_FREE2=0;	
000878  f88a6001          STRB     r6,[r10,#1]
                  |L1.2172|
;;;485    	}
;;;486    
;;;487    }
00087c  e60a              B        |L1.1172|
;;;488    
                          ENDP

                  paking PROC
;;;489    //-----------------------------------------------
;;;490    void paking(char* data_ptr,char data_len)
00087e  b570              PUSH     {r4-r6,lr}
;;;491    {
;;;492    char i,ii,iii;
;;;493    for(i=0;i<data_len;i++)
000880  2200              MOVS     r2,#0
;;;494    	{
;;;495    	ii=data_len+(i/7);
000882  2407              MOVS     r4,#7
000884  e020              B        |L1.2248|
000886  bf00              NOP      
                  |L1.2184|
000888  fbb2f5f4          UDIV     r5,r2,r4
00088c  186b              ADDS     r3,r5,r1
;;;496    	iii=i-(7*(i/7)); 
00088e  eba505c5          SUB      r5,r5,r5,LSL #3
000892  4415              ADD      r5,r5,r2
000894  b2db              UXTB     r3,r3                 ;495
000896  f0150fff          TST      r5,#0xff
;;;497    	if(iii==0) data_ptr[ii]=0;
00089a  d101              BNE      |L1.2208|
00089c  2500              MOVS     r5,#0
00089e  54c5              STRB     r5,[r0,r3]
                  |L1.2208|
;;;498    	data_ptr[ii]<<=1;
0008a0  5cc5              LDRB     r5,[r0,r3]
0008a2  066d              LSLS     r5,r5,#25
0008a4  0e2d              LSRS     r5,r5,#24
0008a6  54c5              STRB     r5,[r0,r3]
;;;499    	if(data_ptr[i]&0x01)
0008a8  5c86              LDRB     r6,[r0,r2]
0008aa  07f6              LSLS     r6,r6,#31
0008ac  d002              BEQ      |L1.2228|
;;;500    		{
;;;501    		data_ptr[ii]|=0x01;//(1<<(6-iii));
0008ae  f0450501          ORR      r5,r5,#1
0008b2  e001              B        |L1.2232|
                  |L1.2228|
;;;502    		}                      
;;;503    	else 
;;;504    		{
;;;505    		data_ptr[ii]&=0xfe;//~(1<<(6-iii));
0008b4  f00505fe          AND      r5,r5,#0xfe
                  |L1.2232|
0008b8  54c5              STRB     r5,[r0,r3]
;;;506    		}              
;;;507    	data_ptr[i]>>=1;	        
0008ba  5c83              LDRB     r3,[r0,r2]
0008bc  085b              LSRS     r3,r3,#1
;;;508    	data_ptr[i]|=0x80;	
0008be  f0430380          ORR      r3,r3,#0x80
0008c2  5483              STRB     r3,[r0,r2]
0008c4  1c52              ADDS     r2,r2,#1              ;493
0008c6  b2d2              UXTB     r2,r2                 ;493
                  |L1.2248|
0008c8  428a              CMP      r2,r1                 ;493
0008ca  d3dd              BCC      |L1.2184|
;;;509    	}                       
;;;510    for(i=data_len;i<(data_len+(data_len/7)+1);i++)
0008cc  fbb1f2f4          UDIV     r2,r1,r4
0008d0  440a              ADD      r2,r2,r1
0008d2  1c52              ADDS     r2,r2,#1
0008d4  e005              B        |L1.2274|
                  |L1.2262|
;;;511    	{
;;;512    	data_ptr[i]|=0x80;
0008d6  5c43              LDRB     r3,[r0,r1]
0008d8  f0430380          ORR      r3,r3,#0x80
0008dc  5443              STRB     r3,[r0,r1]
0008de  1c49              ADDS     r1,r1,#1              ;510
0008e0  b2c9              UXTB     r1,r1                 ;510
                  |L1.2274|
0008e2  428a              CMP      r2,r1                 ;510
0008e4  d8f7              BHI      |L1.2262|
;;;513    	}	
;;;514    }
0008e6  bd70              POP      {r4-r6,pc}
;;;515    
                          ENDP

                  can1_out PROC
;;;516    //-----------------------------------------------
;;;517    void can1_out(char dat0,char dat1,char dat2,char dat3,char dat4,char dat5,char dat6,char dat7)
0008e8  e92d4ff0          PUSH     {r4-r11,lr}
;;;518    {
0008ec  ac09              ADD      r4,sp,#0x24
;;;519    //new_rotor[0]++;
;;;520    can1_info[ptr_can1_tx_wr]=((8UL)<<16)&0x000f0000UL;
0008ee  4fd2              LDR      r7,|L1.3128|
0008f0  e8b44d00          LDM      r4!,{r8,r10,r11,lr}   ;518
0008f4  4cd1              LDR      r4,|L1.3132|
0008f6  3fa0              SUBS     r7,r7,#0xa0
0008f8  f44f2600          MOV      r6,#0x80000
0008fc  78a5              LDRB     r5,[r4,#2]  ; ptr_can1_tx_wr
;;;521    can1_id[ptr_can1_tx_wr]=0x0000009eUL;
0008fe  f1070920          ADD      r9,r7,#0x20
000902  f04f0c9e          MOV      r12,#0x9e
000906  f8476025          STR      r6,[r7,r5,LSL #2]     ;520
;;;522    *((char*)&can1_data[ptr_can1_tx_wr])=dat0;
00090a  f1070640          ADD      r6,r7,#0x40
00090e  f849c025          STR      r12,[r9,r5,LSL #2]    ;521
000912  f8060025          STRB     r0,[r6,r5,LSL #2]
;;;523    *(((char*)&can1_data[ptr_can1_tx_wr])+1)=dat1;
000916  eb060085          ADD      r0,r6,r5,LSL #2
00091a  7041              STRB     r1,[r0,#1]
;;;524    *(((char*)&can1_data[ptr_can1_tx_wr])+2)=dat2;
00091c  7082              STRB     r2,[r0,#2]
;;;525    *(((char*)&can1_data[ptr_can1_tx_wr])+3)=dat3;
00091e  70c3              STRB     r3,[r0,#3]
;;;526    *((char*)&can1_datb[ptr_can1_tx_wr])=dat4;
000920  f1060020          ADD      r0,r6,#0x20
;;;527    *(((char*)&can1_datb[ptr_can1_tx_wr])+1)=dat5;
000924  eb000285          ADD      r2,r0,r5,LSL #2
000928  f8008025          STRB     r8,[r0,r5,LSL #2]     ;526
00092c  f882a001          STRB     r10,[r2,#1]
;;;528    *(((char*)&can1_datb[ptr_can1_tx_wr])+2)=dat6;
000930  f882b002          STRB     r11,[r2,#2]
;;;529    *(((char*)&can1_datb[ptr_can1_tx_wr])+3)=dat7;	
000934  f882e003          STRB     lr,[r2,#3]
;;;530    ptr_can1_tx_wr++;
000938  1c6d              ADDS     r5,r5,#1
00093a  b2e9              UXTB     r1,r5
;;;531    if(ptr_can1_tx_wr>=8)ptr_can1_tx_wr=0;
00093c  2200              MOVS     r2,#0
00093e  70a1              STRB     r1,[r4,#2]            ;530
000940  2908              CMP      r1,#8
000942  d300              BCC      |L1.2374|
000944  70a2              STRB     r2,[r4,#2]
                  |L1.2374|
;;;532    
;;;533    
;;;534    if(bOUT_FREE)
000946  7821              LDRB     r1,[r4,#0]  ; bOUT_FREE
000948  2900              CMP      r1,#0
00094a  d016              BEQ      |L1.2426|
;;;535    	{
;;;536    	//rotor_rotor_rotor[1]++;
;;;537    //	new_rotor[1]++;
;;;538    	LPC_CAN1->TFI1=can1_info[ptr_can1_tx_rd];
00094c  78e1              LDRB     r1,[r4,#3]  ; ptr_can1_tx_rd
00094e  4bbc              LDR      r3,|L1.3136|
000950  f8575021          LDR      r5,[r7,r1,LSL #2]
000954  631d              STR      r5,[r3,#0x30]
;;;539         LPC_CAN1->TID1=can1_id[ptr_can1_tx_rd];
000956  f8595021          LDR      r5,[r9,r1,LSL #2]
00095a  635d              STR      r5,[r3,#0x34]
;;;540         LPC_CAN1->TDA1=can1_data[ptr_can1_tx_rd];
00095c  f8565021          LDR      r5,[r6,r1,LSL #2]
000960  639d              STR      r5,[r3,#0x38]
;;;541         LPC_CAN1->TDB1=can1_datb[ptr_can1_tx_rd];
000962  f8500021          LDR      r0,[r0,r1,LSL #2]
000966  63d8              STR      r0,[r3,#0x3c]
;;;542         LPC_CAN1->CMR=0x00000021;
000968  2021              MOVS     r0,#0x21
00096a  6058              STR      r0,[r3,#4]
;;;543         ptr_can1_tx_rd++;
00096c  1c49              ADDS     r1,r1,#1
00096e  b2c8              UXTB     r0,r1
000970  70e0              STRB     r0,[r4,#3]
;;;544         if(ptr_can1_tx_rd>=8)ptr_can1_tx_rd=0;
000972  2808              CMP      r0,#8
000974  d300              BCC      |L1.2424|
000976  70e2              STRB     r2,[r4,#3]
                  |L1.2424|
;;;545         bOUT_FREE=0;	
000978  7022              STRB     r2,[r4,#0]
                  |L1.2426|
;;;546    	}
;;;547    }	
00097a  e58b              B        |L1.1172|
;;;548    
                          ENDP

                  can2_out PROC
;;;549    //-----------------------------------------------
;;;550    void can2_out(char dat0,char dat1,char dat2,char dat3,char dat4,char dat5,char dat6,char dat7)
00097c  e92d4ff0          PUSH     {r4-r11,lr}
;;;551    {
000980  ac09              ADD      r4,sp,#0x24
;;;552    
;;;553    //new_rotor[0]++;
;;;554    can2_info[ptr_can2_tx_wr]=((8UL)<<16)&0x000f0000UL;
000982  4fad              LDR      r7,|L1.3128|
000984  e8b44d00          LDM      r4!,{r8,r10,r11,lr}   ;551
000988  4cac              LDR      r4,|L1.3132|
00098a  3f20              SUBS     r7,r7,#0x20
00098c  f44f2600          MOV      r6,#0x80000
000990  7925              LDRB     r5,[r4,#4]  ; ptr_can2_tx_wr
;;;555    can2_id[ptr_can2_tx_wr]=0x0000018eUL;
000992  f8df92a4          LDR      r9,|L1.3128|
000996  f44f7cc7          MOV      r12,#0x18e
00099a  f8476025          STR      r6,[r7,r5,LSL #2]     ;554
;;;556    *((char*)&can2_data[ptr_can2_tx_wr])=dat0;
00099e  f1070640          ADD      r6,r7,#0x40
0009a2  f849c025          STR      r12,[r9,r5,LSL #2]    ;555
0009a6  f8060025          STRB     r0,[r6,r5,LSL #2]
;;;557    *(((char*)&can2_data[ptr_can2_tx_wr])+1)=dat1;
0009aa  eb060085          ADD      r0,r6,r5,LSL #2
0009ae  7041              STRB     r1,[r0,#1]
;;;558    *(((char*)&can2_data[ptr_can2_tx_wr])+2)=dat2;
0009b0  7082              STRB     r2,[r0,#2]
;;;559    *(((char*)&can2_data[ptr_can2_tx_wr])+3)=dat3;
0009b2  70c3              STRB     r3,[r0,#3]
;;;560    *((char*)&can2_datb[ptr_can2_tx_wr])=dat4;
0009b4  f1060020          ADD      r0,r6,#0x20
;;;561    *(((char*)&can2_datb[ptr_can2_tx_wr])+1)=dat5;
0009b8  eb000285          ADD      r2,r0,r5,LSL #2
0009bc  f8008025          STRB     r8,[r0,r5,LSL #2]     ;560
0009c0  f882a001          STRB     r10,[r2,#1]
;;;562    *(((char*)&can2_datb[ptr_can2_tx_wr])+2)=dat6;
0009c4  f882b002          STRB     r11,[r2,#2]
;;;563    *(((char*)&can2_datb[ptr_can2_tx_wr])+3)=dat7;	
0009c8  f882e003          STRB     lr,[r2,#3]
;;;564    ptr_can2_tx_wr++;
0009cc  1c6d              ADDS     r5,r5,#1
0009ce  b2e9              UXTB     r1,r5
;;;565    if(ptr_can2_tx_wr>=8)ptr_can2_tx_wr=0;
0009d0  2200              MOVS     r2,#0
0009d2  7121              STRB     r1,[r4,#4]            ;564
0009d4  2908              CMP      r1,#8
0009d6  d300              BCC      |L1.2522|
0009d8  7122              STRB     r2,[r4,#4]
                  |L1.2522|
;;;566    
;;;567    
;;;568    if(bOUT_FREE2)
0009da  7861              LDRB     r1,[r4,#1]  ; bOUT_FREE2
0009dc  2900              CMP      r1,#0
0009de  d016              BEQ      |L1.2574|
;;;569    	{
;;;570    	//rotor_rotor_rotor[1]++;
;;;571    //	new_rotor[1]++;
;;;572    	LPC_CAN2->TFI1=can2_info[ptr_can2_tx_rd];
0009e0  7961              LDRB     r1,[r4,#5]  ; ptr_can2_tx_rd
0009e2  4b94              LDR      r3,|L1.3124|
0009e4  f8575021          LDR      r5,[r7,r1,LSL #2]
0009e8  631d              STR      r5,[r3,#0x30]
;;;573         LPC_CAN2->TID1=can2_id[ptr_can2_tx_rd];
0009ea  f8595021          LDR      r5,[r9,r1,LSL #2]
0009ee  635d              STR      r5,[r3,#0x34]
;;;574         LPC_CAN2->TDA1=can2_data[ptr_can2_tx_rd];
0009f0  f8565021          LDR      r5,[r6,r1,LSL #2]
0009f4  639d              STR      r5,[r3,#0x38]
;;;575         LPC_CAN2->TDB1=can2_datb[ptr_can2_tx_rd];
0009f6  f8500021          LDR      r0,[r0,r1,LSL #2]
0009fa  63d8              STR      r0,[r3,#0x3c]
;;;576         LPC_CAN2->CMR=0x00000021;
0009fc  2021              MOVS     r0,#0x21
0009fe  6058              STR      r0,[r3,#4]
;;;577         ptr_can2_tx_rd++;
000a00  1c49              ADDS     r1,r1,#1
000a02  b2c8              UXTB     r0,r1
000a04  7160              STRB     r0,[r4,#5]
;;;578         if(ptr_can2_tx_rd>=8)ptr_can2_tx_rd=0;
000a06  2808              CMP      r0,#8
000a08  d300              BCC      |L1.2572|
000a0a  7162              STRB     r2,[r4,#5]
                  |L1.2572|
;;;579         bOUT_FREE2=0;	
000a0c  7062              STRB     r2,[r4,#1]
                  |L1.2574|
;;;580    	}
;;;581    }	
000a0e  e541              B        |L1.1172|
;;;582    	
                          ENDP

                  can_adr_hndl PROC
;;;584    //-----------------------------------------------
;;;585    void can_adr_hndl(void)
000a10  4889              LDR      r0,|L1.3128|
;;;586    {
;;;587    	TXBUFF[2]=RXBUFF[3];
000a12  3084              ADDS     r0,r0,#0x84
000a14  f1000128          ADD      r1,r0,#0x28
000a18  78c2              LDRB     r2,[r0,#3]  ; RXBUFF
000a1a  708a              STRB     r2,[r1,#2]
;;;588    	TXBUFF[3]=RXBUFF[2];
000a1c  7882              LDRB     r2,[r0,#2]  ; RXBUFF
000a1e  70ca              STRB     r2,[r1,#3]
;;;589    	TXBUFF[4]=((RXBUFF[4]&0xF0)>>4)|((RXBUFF[4]&0x0f)<<4);
000a20  7902              LDRB     r2,[r0,#4]  ; RXBUFF
000a22  0913              LSRS     r3,r2,#4
000a24  ea431202          ORR      r2,r3,r2,LSL #4
000a28  710a              STRB     r2,[r1,#4]
;;;590    	TXBUFF[5]=((RXBUFF[5]&0xF0)>>4)|((RXBUFF[5]&0x0f)<<4);	
000a2a  7940              LDRB     r0,[r0,#5]  ; RXBUFF
000a2c  0902              LSRS     r2,r0,#4
000a2e  ea421000          ORR      r0,r2,r0,LSL #4
000a32  7148              STRB     r0,[r1,#5]
;;;591    }	
000a34  4770              BX       lr
;;;592    
                          ENDP

                  can_in_an2 PROC
;;;593    //-----------------------------------------------
;;;594    void can_in_an2(void)
000a36  e92d4ff0          PUSH     {r4-r11,lr}
;;;595    {
;;;596    if(!bIN) goto CAN_IN_AN_end; 
000a3a  4880              LDR      r0,|L1.3132|
000a3c  b089              SUB      sp,sp,#0x24           ;595
000a3e  f04f0b00          MOV      r11,#0
000a42  79c0              LDRB     r0,[r0,#7]  ; bIN
000a44  2800              CMP      r0,#0
000a46  d07e              BEQ      |L1.2886|
;;;597    //can_debug_plazma[0][1]++;
;;;598    can2_plazma++;
000a48  497e              LDR      r1,|L1.3140|
000a4a  7808              LDRB     r0,[r1,#0]  ; can2_plazma
000a4c  1c40              ADDS     r0,r0,#1
000a4e  7008              STRB     r0,[r1,#0]
;;;599    
;;;600    if(RXBUFF[0]==45)
000a50  4879              LDR      r0,|L1.3128|
000a52  3084              ADDS     r0,r0,#0x84
000a54  7803              LDRB     r3,[r0,#0]  ; RXBUFF
000a56  2b2d              CMP      r3,#0x2d
000a58  d076              BEQ      |L1.2888|
;;;601    	{
;;;602    	tumbler_stat=(enum_tumbler_stat)RXBUFF[1];
;;;603    	if((tumbler_stat!=tumbler_stat_old))
;;;604    		{
;;;605    		if(tumbler_stat==tsU)
;;;606    			{
;;;607    			lc640_write_int(EE_MAIN_MENU_MODE,mmmIN);
;;;608    			}
;;;609    		else lc640_write_int(EE_MAIN_MENU_MODE,mmmIT);
;;;610    		
;;;611    		if(main_cnt>3)
;;;612    			{
;;;613    			work_stat=wsOFF;
;;;614    			restart_off();
;;;615    			}
;;;616    		}
;;;617    	tumbler_stat_old=tumbler_stat;
;;;618    	}
;;;619    
;;;620    else if(RXBUFF[0]==61)
;;;621    	{
;;;622    	if(I_ug<1000)I_ug++;
000a5a  f8dfc1f8          LDR      r12,|L1.3156|
;;;623    	else I_ug=((I_ug/10)+1)*10;
000a5e  240a              MOVS     r4,#0xa
;;;624    	gran(&I_ug,I_MIN_IPS,I_MAX_IPS);
000a60  4a79              LDR      r2,|L1.3144|
000a62  f9bc0000          LDRSH    r0,[r12,#0]           ;622
000a66  4979              LDR      r1,|L1.3148|
000a68  fb90f7f4          SDIV     r7,r0,r4              ;623
000a6c  1c7d              ADDS     r5,r7,#1              ;623
000a6e  eb050585          ADD      r5,r5,r5,LSL #2       ;623
000a72  006d              LSLS     r5,r5,#1              ;623
;;;625    	I_ug_block_cnt=10;
000a74  f8df91d8          LDR      r9,|L1.3152|
000a78  f9b22000          LDRSH    r2,[r2,#0]            ;624
000a7c  f9b11000          LDRSH    r1,[r1,#0]            ;624
000a80  f44f7a7a          MOV      r10,#0x3e8            ;622
000a84  fa0ff885          SXTH     r8,r5                 ;623
000a88  2b3d              CMP      r3,#0x3d              ;620
000a8a  d071              BEQ      |L1.2928|
000a8c  4666              MOV      r6,r12                ;622
000a8e  250a              MOVS     r5,#0xa               ;623
000a90  f9b66000          LDRSH    r6,[r6,#0]            ;622
000a94  fb96f5f5          SDIV     r5,r6,r5              ;623
;;;626    	//lc640_write_int(EE_I_UG,I_ug);
;;;627    	}
;;;628    
;;;629    else if(RXBUFF[0]==62)
;;;630    	{
;;;631    	if(I_ug<1000)I_ug--;
;;;632    	else I_ug=((I_ug/10)-1)*10;
000a98  1e6d              SUBS     r5,r5,#1
000a9a  eb050585          ADD      r5,r5,r5,LSL #2
000a9e  006d              LSLS     r5,r5,#1
000aa0  b22d              SXTH     r5,r5
000aa2  2b3e              CMP      r3,#0x3e              ;629
000aa4  d07e              BEQ      |L1.2980|
;;;633    	gran(&I_ug,I_MIN_IPS,I_MAX_IPS);
;;;634    	I_ug_block_cnt=10;
;;;635    	//lc640_write_int(EE_I_UG,I_ug);
;;;636    	}
;;;637    else if(RXBUFF[0]==63)
000aa6  2b3f              CMP      r3,#0x3f
000aa8  d07d              BEQ      |L1.2982|
;;;638    	{
;;;639    	if(I_ug<1000)I_ug=((I_ug/10)+1)*10;
;;;640    	else I_ug=((I_ug/10)+5)*10;
;;;641    	gran(&I_ug,I_MIN_IPS,I_MAX_IPS);
;;;642    	I_ug_block_cnt=10;
;;;643    	//lc640_write_int(EE_I_UG,I_ug);
;;;644    	}
;;;645    
;;;646    else if(RXBUFF[0]==64)
000aaa  2b40              CMP      r3,#0x40
000aac  d07c              BEQ      |L1.2984|
;;;647    	{
;;;648    	if(I_ug<1000)I_ug=((I_ug/10)-1)*10;
;;;649    	else I_ug=((I_ug/10)-5)*10;
;;;650    	gran(&I_ug,I_MIN_IPS,I_MAX_IPS);
;;;651    	I_ug_block_cnt=10;
;;;652    	//lc640_write_int(EE_I_UG,I_ug);
;;;653    	}
;;;654    
;;;655    else if(RXBUFF[0]==71)
;;;656    	{
;;;657    	U_up++;
000aae  486a              LDR      r0,|L1.3160|
;;;658    	gran(&U_up,U_MIN,U_MAX);
000ab0  4a6a              LDR      r2,|L1.3164|
000ab2  496b              LDR      r1,|L1.3168|
;;;659    	U_up_block_cnt=10;
000ab4  4f6b              LDR      r7,|L1.3172|
000ab6  f9b05000          LDRSH    r5,[r0,#0]            ;657
000aba  f9b22000          LDRSH    r2,[r2,#0]            ;658
000abe  f9b11000          LDRSH    r1,[r1,#0]            ;658
000ac2  2b47              CMP      r3,#0x47              ;655
000ac4  d071              BEQ      |L1.2986|
;;;660    	}
;;;661    
;;;662    else if(RXBUFF[0]==72)
000ac6  2b48              CMP      r3,#0x48
000ac8  d070              BEQ      |L1.2988|
000aca  4606              MOV      r6,r0                 ;657
000acc  250a              MOVS     r5,#0xa               ;623
000ace  f9b66000          LDRSH    r6,[r6,#0]            ;657
;;;663    	{
;;;664    	U_up--;
;;;665    	gran(&U_up,U_MIN,U_MAX);
;;;666    	U_up_block_cnt=10;
;;;667    
;;;668    	}
;;;669    else if(RXBUFF[0]==73)
000ad2  2b49              CMP      r3,#0x49
;;;670    	{
;;;671    	U_up=((U_up/10)+1)*10;
000ad4  fb96f5f5          SDIV     r5,r6,r5
000ad8  d069              BEQ      |L1.2990|
;;;672    	gran(&U_up,U_MIN,U_MAX);
;;;673    	U_up_block_cnt=10;
;;;674    	}
;;;675    
;;;676    else if(RXBUFF[0]==74)
000ada  2b4a              CMP      r3,#0x4a
000adc  d068              BEQ      |L1.2992|
000ade  4863              LDR      r0,|L1.3180|
;;;677    	{
;;;678    	U_up=((U_up/10)-1)*10;
;;;679    	gran(&U_up,U_MIN,U_MAX);
;;;680    	U_up_block_cnt=10;
;;;681    	}
;;;682    
;;;683    
;;;684    else if(RXBUFF[0]==51)	//+
;;;685    	{
;;;686    	if((main_menu_mode==mmmIT)&&(work_stat==wsOFF))
;;;687    		{
;;;688    		if(TIME_VISION_PULT)
000ae0  4961              LDR      r1,|L1.3176|
;;;689    			{
;;;690    			T_PROC_GS=(((T_PROC_GS/60L)+1L)*60L);
000ae2  f8dfe190          LDR      lr,|L1.3188|
000ae6  7805              LDRB     r5,[r0,#0]            ;613
000ae8  4861              LDR      r0,|L1.3184|
000aea  9500              STR      r5,[sp,#0]            ;686
000aec  223c              MOVS     r2,#0x3c
000aee  7800              LDRB     r0,[r0,#0]            ;686
000af0  9002              STR      r0,[sp,#8]            ;686
000af2  4328              ORRS     r0,r0,r5              ;686
000af4  9001              STR      r0,[sp,#4]            ;688
000af6  f9b10000          LDRSH    r0,[r1,#0]            ;688
;;;691    			T_PROC_GS_block_cnt=10;
;;;692    			}
;;;693    		else
;;;694    			{
;;;695    			T_PROC_GS++;
;;;696    			T_PROC_GS_block_cnt=10;
;;;697    			}
;;;698    
;;;699    		if(T_PROC_GS>T_PROC_MAX)								 	//   
;;;700    			{												//     
;;;701    			T_PROC_GS=T_PROC_MAX+1;								//  
;;;702    			if(T_PROC_GS_MODE!=1)								//(  )  
;;;703    				{											//   
;;;704    				T_PROC_GS_MODE=1;								//(T_PROC_GS_MODE=1),  
;;;705    				lc640_write_int(EE_T_PROC_GS_MODE,T_PROC_GS_MODE);	//     - 
;;;706    				}											//    
;;;707    			}												//(T_PROC_GS_MODE=0)
;;;708    	
;;;709    		else if(T_PROC_GS<30)
;;;710    			{
;;;711    			T_PROC_GS=29;
;;;712    			if(T_PROC_GS_MODE!=1)
;;;713    				{
;;;714    				T_PROC_GS_MODE=1;
;;;715    				lc640_write_int(EE_T_PROC_GS_MODE,T_PROC_GS_MODE);
;;;716    				}
;;;717    			}
;;;718    		else 
;;;719    			{
;;;720    			if(T_PROC_GS_MODE!=0)
;;;721    				{
;;;722    				T_PROC_GS_MODE=0;
;;;723    				lc640_write_int(EE_T_PROC_GS_MODE,T_PROC_GS_MODE);
;;;724    				}
;;;725    			}			
;;;726    		}
;;;727    	else if((main_menu_mode==mmmIN)&&(work_stat==wsOFF))
;;;728    		{
;;;729    		if(TIME_VISION_PULT)
;;;730    			{
;;;731    			T_PROC_PS=(((T_PROC_PS/60L)+1L)*60L);
000afa  f8dfa184          LDR      r10,|L1.3200|
000afe  4680              MOV      r8,r0                 ;688
000b00  f8de0000          LDR      r0,[lr,#0]            ;690
000b04  9003              STR      r0,[sp,#0xc]          ;690
000b06  fb90f0f2          SDIV     r0,r0,r2              ;690
000b0a  9004              STR      r0,[sp,#0x10]         ;699
000b0c  f8da5000          LDR      r5,[r10,#0]
000b10  4859              LDR      r0,|L1.3192|
000b12  fb95f2f2          SDIV     r2,r5,r2
000b16  4959              LDR      r1,|L1.3196|
000b18  f8b0c000          LDRH     r12,[r0,#0]           ;699
000b1c  f04f0901          MOV      r9,#1                 ;602
000b20  f9b11000          LDRSH    r1,[r1,#0]            ;702
000b24  e9cd2505          STRD     r2,r5,[sp,#0x14]
;;;732    			T_PROC_PS_block_cnt=10;
;;;733    			}
;;;734    		else
;;;735    			{
;;;736    			T_PROC_PS++;
;;;737    			T_PROC_PS_block_cnt=10;
;;;738    			}
;;;739    
;;;740    		if(T_PROC_PS>T_PROC_MAX)								 	//   
;;;741    			{												//     
;;;742    			T_PROC_PS=T_PROC_MAX+1;								//  
;;;743    			if(T_PROC_PS_MODE!=1)								//(  )  
000b28  4a56              LDR      r2,|L1.3204|
000b2a  f10c0001          ADD      r0,r12,#1             ;701
000b2e  2b33              CMP      r3,#0x33              ;684
000b30  f9b22000          LDRSH    r2,[r2,#0]
000b34  d073              BEQ      |L1.3102|
000b36  4675              MOV      r5,lr                 ;690
;;;744    				{											//   
;;;745    				T_PROC_PS_MODE=1;								//(T_PROC_PS_MODE=1),  
;;;746    				lc640_write_int(EE_T_PROC_PS_MODE,T_PROC_PS_MODE);	//     - 
;;;747    				}											//    
;;;748    			}												//(T_PROC_PS_MODE=0)
;;;749    	
;;;750    		else if(T_PROC_PS<30)
;;;751    			{
;;;752    			T_PROC_PS=29;
;;;753    			if(T_PROC_PS_MODE!=1)
;;;754    				{
;;;755    				T_PROC_PS_MODE=1;
;;;756    				lc640_write_int(EE_T_PROC_PS_MODE,T_PROC_PS_MODE);
;;;757    				}
;;;758    			}
;;;759    		else 
;;;760    			{
;;;761    			if(T_PROC_PS_MODE!=0)
;;;762    				{
;;;763    				T_PROC_PS_MODE=0;
;;;764    				lc640_write_int(EE_T_PROC_PS_MODE,T_PROC_PS_MODE);
;;;765    				}
;;;766    			}			
;;;767    		}
;;;768    	}
;;;769    else if(RXBUFF[0]==53)	//++
;;;770    	{
;;;771    	if((main_menu_mode==mmmIT)&&(work_stat==wsOFF))
;;;772    		{
;;;773    		if(TIME_VISION_PULT)
;;;774    			{
;;;775    			T_PROC_GS=(((T_PROC_GS/600L)+1L)*600L);
000b38  f44f7616          MOV      r6,#0x258
000b3c  682d              LDR      r5,[r5,#0]            ;690
000b3e  fb95f7f6          SDIV     r7,r5,r6
000b42  9707              STR      r7,[sp,#0x1c]         ;623
000b44  e001              B        |L1.2890|
                  |L1.2886|
000b46  e0dc              B        |L1.3330|
                  |L1.2888|
000b48  e013              B        |L1.2930|
                  |L1.2890|
000b4a  270a              MOVS     r7,#0xa               ;623
;;;776    			T_PROC_GS_block_cnt=10;
;;;777    			}
;;;778    		else
;;;779    			{
;;;780    			T_PROC_GS=(((T_PROC_GS/10L)+1L)*10L);
000b4c  fb95f5f7          SDIV     r5,r5,r7
000b50  9508              STR      r5,[sp,#0x20]         ;731
000b52  4655              MOV      r5,r10                ;731
000b54  2b35              CMP      r3,#0x35              ;769
000b56  682d              LDR      r5,[r5,#0]            ;731
;;;781    			T_PROC_GS_block_cnt=10;
;;;782    			}
;;;783    
;;;784    		if(T_PROC_GS>T_PROC_MAX)								 	//   
;;;785    			{												//     
;;;786    			T_PROC_GS=T_PROC_MAX+1;								//  
;;;787    			if(T_PROC_GS_MODE!=1)								//(  )  
;;;788    				{											//   
;;;789    				T_PROC_GS_MODE=1;								//(T_PROC_GS_MODE=1),  
;;;790    				lc640_write_int(EE_T_PROC_GS_MODE,T_PROC_GS_MODE);	//     - 
;;;791    				}											//    
;;;792    			}												//(T_PROC_GS_MODE=0)
;;;793    	
;;;794    		else if(T_PROC_GS<30)
;;;795    			{
;;;796    			T_PROC_GS=29;
;;;797    			if(T_PROC_GS_MODE!=1)
;;;798    				{
;;;799    				T_PROC_GS_MODE=1;
;;;800    				lc640_write_int(EE_T_PROC_GS_MODE,T_PROC_GS_MODE);
;;;801    				}
;;;802    			}
;;;803    		else 
;;;804    			{
;;;805    			if(T_PROC_GS_MODE!=0)
;;;806    				{
;;;807    				T_PROC_GS_MODE=0;
;;;808    				lc640_write_int(EE_T_PROC_GS_MODE,T_PROC_GS_MODE);
;;;809    				}
;;;810    			}			
;;;811    		}
;;;812    	else if((main_menu_mode==mmmIN)&&(work_stat==wsOFF))
;;;813    		{
;;;814    		if(TIME_VISION_PULT)
;;;815    			{
;;;816    			T_PROC_PS=(((T_PROC_PS/600L)+1L)*600L);
000b58  fb95f6f6          SDIV     r6,r5,r6
;;;817    			T_PROC_PS_block_cnt=10;
;;;818    			}
;;;819    		else
;;;820    			{
;;;821    			T_PROC_PS=(((T_PROC_PS/10L)+1L)*10L);
000b5c  fb95f5f7          SDIV     r5,r5,r7
000b60  d063              BEQ      |L1.3114|
;;;822    			T_PROC_PS_block_cnt=10;
;;;823    			}
;;;824    
;;;825    		if(T_PROC_PS>T_PROC_MAX)								 	//   
;;;826    			{												//     
;;;827    			T_PROC_PS=T_PROC_MAX+1;								//  
;;;828    			if(T_PROC_PS_MODE!=1)								//(  )  
;;;829    				{											//   
;;;830    				T_PROC_PS_MODE=1;								//(T_PROC_PS_MODE=1),  
;;;831    				lc640_write_int(EE_T_PROC_PS_MODE,T_PROC_PS_MODE);	//     - 
;;;832    				}											//    
;;;833    			}												//(T_PROC_PS_MODE=0)
;;;834    	
;;;835    		else if(T_PROC_PS<30)
;;;836    			{
;;;837    			T_PROC_PS=29;
;;;838    			if(T_PROC_PS_MODE!=1)
;;;839    				{
;;;840    				T_PROC_PS_MODE=1;
;;;841    				lc640_write_int(EE_T_PROC_PS_MODE,T_PROC_PS_MODE);
;;;842    				}
;;;843    			}
;;;844    		else 
;;;845    			{
;;;846    			if(T_PROC_PS_MODE!=0)
;;;847    				{
;;;848    				T_PROC_PS_MODE=0;
;;;849    				lc640_write_int(EE_T_PROC_PS_MODE,T_PROC_PS_MODE);
;;;850    				}
;;;851    			}				
;;;852    		}
;;;853    	}
;;;854    
;;;855    else if(RXBUFF[0]==52)	//-
000b62  2b34              CMP      r3,#0x34
000b64  d062              BEQ      |L1.3116|
;;;856    	{
;;;857    	if((main_menu_mode==mmmIT)&&(work_stat==wsOFF))
;;;858    		{
;;;859    		if(TIME_VISION_PULT)
;;;860    			{
;;;861    			T_PROC_GS=(((T_PROC_GS/60L)-1L)*60L);
;;;862    			T_PROC_GS_block_cnt=10;
;;;863    			}
;;;864    		else
;;;865    			{
;;;866    			T_PROC_GS--;
;;;867    			T_PROC_GS_block_cnt=10;
;;;868    			}
;;;869    
;;;870    			
;;;871    		if(T_PROC_GS>T_PROC_MAX)								 	//   
;;;872    			{												//     
;;;873    			T_PROC_GS=T_PROC_MAX+1;								//  
;;;874    			if(T_PROC_GS_MODE!=1)								//(  )  
;;;875    				{											//   
;;;876    				T_PROC_GS_MODE=1;								//(T_PROC_GS_MODE=1),  
;;;877    				lc640_write_int(EE_T_PROC_GS_MODE,T_PROC_GS_MODE);	//     - 
;;;878    				}											//    
;;;879    			}												//(T_PROC_GS_MODE=0)
;;;880    	
;;;881    		else if(T_PROC_GS<30)
;;;882    			{
;;;883    			T_PROC_GS=29;
;;;884    			if(T_PROC_GS_MODE!=1)
;;;885    				{
;;;886    				T_PROC_GS_MODE=1;
;;;887    				lc640_write_int(EE_T_PROC_GS_MODE,T_PROC_GS_MODE);
;;;888    				}
;;;889    			}
;;;890    		else 
;;;891    			{
;;;892    			if(T_PROC_GS_MODE!=0)
;;;893    				{
;;;894    				T_PROC_GS_MODE=0;
;;;895    				lc640_write_int(EE_T_PROC_GS_MODE,T_PROC_GS_MODE);
;;;896    				}
;;;897    			}
;;;898    			
;;;899    		}
;;;900    	else if((main_menu_mode==mmmIN)&&(work_stat==wsOFF))
;;;901    		{
;;;902    		if(TIME_VISION_PULT)
;;;903    			{
;;;904    			T_PROC_PS=(((T_PROC_PS/60L)-1L)*60L);
;;;905    			T_PROC_PS_block_cnt=10;
;;;906    			}
;;;907    		else
;;;908    			{
;;;909    			T_PROC_PS--;
;;;910    			T_PROC_PS_block_cnt=10;
;;;911    			}
;;;912    
;;;913    		if(T_PROC_PS>T_PROC_MAX)								 	//   
;;;914    			{												//     
;;;915    			T_PROC_PS=T_PROC_MAX+1;								//  
;;;916    			if(T_PROC_PS_MODE!=1)								//(  )  
;;;917    				{											//   
;;;918    				T_PROC_PS_MODE=1;								//(T_PROC_PS_MODE=1),  
;;;919    				lc640_write_int(EE_T_PROC_PS_MODE,T_PROC_PS_MODE);	//     - 
;;;920    				}											//    
;;;921    			}												//(T_PROC_PS_MODE=0)
;;;922    	
;;;923    		else if(T_PROC_PS<30)
;;;924    			{
;;;925    			T_PROC_PS=29;
;;;926    			if(T_PROC_PS_MODE!=1)
;;;927    				{
;;;928    				T_PROC_PS_MODE=1;
;;;929    				lc640_write_int(EE_T_PROC_PS_MODE,T_PROC_PS_MODE);
;;;930    				}
;;;931    			}
;;;932    		else 
;;;933    			{
;;;934    			if(T_PROC_PS_MODE!=0)
;;;935    				{
;;;936    				T_PROC_PS_MODE=0;
;;;937    				lc640_write_int(EE_T_PROC_PS_MODE,T_PROC_PS_MODE);
;;;938    				}
;;;939    			}			
;;;940    		}
;;;941    	}
;;;942    else if(RXBUFF[0]==54)	//--
000b66  2b36              CMP      r3,#0x36
000b68  d061              BEQ      |L1.3118|
;;;943    	{
;;;944    	if((main_menu_mode==mmmIT)&&(work_stat==wsOFF))
;;;945    		{
;;;946    		if(TIME_VISION_PULT)
;;;947    			{
;;;948    			T_PROC_GS=(((T_PROC_GS/600L)-1L)*600L);
;;;949    			T_PROC_GS_block_cnt=10;
;;;950    			}
;;;951    		else
;;;952    			{
;;;953    			T_PROC_GS=(((T_PROC_GS/10L)-1L)*10L);
;;;954    			T_PROC_GS_block_cnt=10;
;;;955    			}
;;;956    
;;;957    		if(T_PROC_GS>T_PROC_MAX)								 	//   
;;;958    			{												//     
;;;959    			T_PROC_GS=T_PROC_MAX+1;								//  
;;;960    			if(T_PROC_GS_MODE!=1)								//(  )  
;;;961    				{											//   
;;;962    				T_PROC_GS_MODE=1;								//(T_PROC_GS_MODE=1),  
;;;963    				lc640_write_int(EE_T_PROC_GS_MODE,T_PROC_GS_MODE);	//     - 
;;;964    				}											//    
;;;965    			}												//(T_PROC_GS_MODE=0)
;;;966    	
;;;967    		else if(T_PROC_GS<30)
;;;968    			{
;;;969    			T_PROC_GS=29;
;;;970    			if(T_PROC_GS_MODE!=1)
;;;971    				{
;;;972    				T_PROC_GS_MODE=1;
;;;973    				lc640_write_int(EE_T_PROC_GS_MODE,T_PROC_GS_MODE);
;;;974    				}
;;;975    			}
;;;976    		else 
;;;977    			{
;;;978    			if(T_PROC_GS_MODE!=0)
;;;979    				{
;;;980    				T_PROC_GS_MODE=0;
;;;981    				lc640_write_int(EE_T_PROC_GS_MODE,T_PROC_GS_MODE);
;;;982    				}
;;;983    			}
;;;984    						
;;;985    		}
;;;986    	else if((main_menu_mode==mmmIN)&&(work_stat==wsOFF))
;;;987    		{
;;;988    		if(TIME_VISION_PULT)
;;;989    			{
;;;990    			T_PROC_PS=(((T_PROC_PS/600L)-1L)*600L);
;;;991    			T_PROC_PS_block_cnt=10;
;;;992    			}
;;;993    		else
;;;994    			{
;;;995    			T_PROC_PS=(((T_PROC_PS/10L)-1L)*10L);
;;;996    			T_PROC_PS_block_cnt=10;
;;;997    			}
;;;998    
;;;999    		if(T_PROC_PS>T_PROC_MAX)								 	//   
;;;1000   			{												//     
;;;1001   			T_PROC_PS=T_PROC_MAX+1;								//  
;;;1002   			if(T_PROC_PS_MODE!=1)								//(  )  
;;;1003   				{											//   
;;;1004   				T_PROC_PS_MODE=1;								//(T_PROC_PS_MODE=1),  
;;;1005   				lc640_write_int(EE_T_PROC_PS_MODE,T_PROC_PS_MODE);	//     - 
;;;1006   				}											//    
;;;1007   			}												//(T_PROC_PS_MODE=0)
;;;1008   	
;;;1009   		else if(T_PROC_PS<30)
;;;1010   			{
;;;1011   			T_PROC_PS=29;
;;;1012   			if(T_PROC_PS_MODE!=1)
;;;1013   				{
;;;1014   				T_PROC_PS_MODE=1;
;;;1015   				lc640_write_int(EE_T_PROC_PS_MODE,T_PROC_PS_MODE);
;;;1016   				}
;;;1017   			}
;;;1018   		else 
;;;1019   			{
;;;1020   			if(T_PROC_PS_MODE!=0)
;;;1021   				{
;;;1022   				T_PROC_PS_MODE=0;
;;;1023   				lc640_write_int(EE_T_PROC_PS_MODE,T_PROC_PS_MODE);
;;;1024   				}
;;;1025   			}	
;;;1026   		}
;;;1027   	}
;;;1028   
;;;1029   
;;;1030   else if(RXBUFF[0]==90)
000b6a  2b5a              CMP      r3,#0x5a
000b6c  d060              BEQ      |L1.3120|
000b6e  e18c              B        |L1.3722|
                  |L1.2928|
000b70  e023              B        |L1.3002|
                  |L1.2930|
000b72  4c45              LDR      r4,|L1.3208|
000b74  4d45              LDR      r5,|L1.3212|
000b76  7840              LDRB     r0,[r0,#1]            ;602  ; RXBUFF
000b78  7020              STRB     r0,[r4,#0]            ;602
000b7a  7829              LDRB     r1,[r5,#0]            ;603  ; tumbler_stat_old
000b7c  4288              CMP      r0,r1                 ;603
000b7e  d00f              BEQ      |L1.2976|
000b80  2801              CMP      r0,#1                 ;605
000b82  d018              BEQ      |L1.2998|
000b84  2100              MOVS     r1,#0                 ;609
                  |L1.2950|
000b86  20ea              MOVS     r0,#0xea              ;609
000b88  f7fffffe          BL       lc640_write_int
000b8c  4840              LDR      r0,|L1.3216|
000b8e  f9b00000          LDRSH    r0,[r0,#0]            ;611  ; main_cnt
000b92  2803              CMP      r0,#3                 ;611
000b94  dd04              BLE      |L1.2976|
000b96  4935              LDR      r1,|L1.3180|
000b98  f881b000          STRB     r11,[r1,#0]           ;613
000b9c  f7fffffe          BL       restart_off
                  |L1.2976|
000ba0  7820              LDRB     r0,[r4,#0]            ;617  ; tumbler_stat
000ba2  e006              B        |L1.2994|
                  |L1.2980|
000ba4  e010              B        |L1.3016|
                  |L1.2982|
000ba6  e01d              B        |L1.3044|
                  |L1.2984|
000ba8  e020              B        |L1.3052|
                  |L1.2986|
000baa  e026              B        |L1.3066|
                  |L1.2988|
000bac  e027              B        |L1.3070|
                  |L1.2990|
000bae  e029              B        |L1.3076|
                  |L1.2992|
000bb0  e02a              B        |L1.3080|
                  |L1.2994|
000bb2  7028              STRB     r0,[r5,#0]            ;617
000bb4  e169              B        |L1.3722|
                  |L1.2998|
000bb6  2101              MOVS     r1,#1                 ;607
000bb8  e7e5              B        |L1.2950|
                  |L1.3002|
000bba  4550              CMP      r0,r10                ;622
000bbc  da01              BGE      |L1.3010|
000bbe  1c40              ADDS     r0,r0,#1              ;622
000bc0  e005              B        |L1.3022|
                  |L1.3010|
000bc2  f8ac8000          STRH     r8,[r12,#0]           ;623
000bc6  e007              B        |L1.3032|
                  |L1.3016|
000bc8  4550              CMP      r0,r10                ;631
000bca  da03              BGE      |L1.3028|
000bcc  1e40              SUBS     r0,r0,#1              ;631
                  |L1.3022|
000bce  f8ac0000          STRH     r0,[r12,#0]           ;622
000bd2  e001              B        |L1.3032|
                  |L1.3028|
000bd4  f8ac5000          STRH     r5,[r12,#0]           ;632
                  |L1.3032|
000bd8  481e              LDR      r0,|L1.3156|
000bda  f7fffffe          BL       gran
000bde  f8a94000          STRH     r4,[r9,#0]            ;651
000be2  e152              B        |L1.3722|
                  |L1.3044|
000be4  4550              CMP      r0,r10                ;639
000be6  dbec              BLT      |L1.3010|
000be8  1d7f              ADDS     r7,r7,#5              ;640
000bea  e002              B        |L1.3058|
                  |L1.3052|
000bec  4550              CMP      r0,r10                ;648
000bee  dbf1              BLT      |L1.3028|
000bf0  1f7f              SUBS     r7,r7,#5              ;649
                  |L1.3058|
000bf2  eb070087          ADD      r0,r7,r7,LSL #2       ;649
000bf6  0040              LSLS     r0,r0,#1              ;649
000bf8  e7e9              B        |L1.3022|
                  |L1.3066|
000bfa  1c6d              ADDS     r5,r5,#1              ;657
000bfc  e000              B        |L1.3072|
                  |L1.3070|
000bfe  1e6d              SUBS     r5,r5,#1              ;664
                  |L1.3072|
000c00  8005              STRH     r5,[r0,#0]            ;657
000c02  e006              B        |L1.3090|
                  |L1.3076|
000c04  1c6d              ADDS     r5,r5,#1              ;671
000c06  e000              B        |L1.3082|
                  |L1.3080|
000c08  1e6d              SUBS     r5,r5,#1              ;678
                  |L1.3082|
000c0a  eb050385          ADD      r3,r5,r5,LSL #2       ;678
000c0e  005b              LSLS     r3,r3,#1              ;678
000c10  8003              STRH     r3,[r0,#0]            ;678
                  |L1.3090|
000c12  4811              LDR      r0,|L1.3160|
000c14  f7fffffe          BL       gran
000c18  803c              STRH     r4,[r7,#0]            ;680
000c1a  e136              B        |L1.3722|
000c1c  e7ff              B        |L1.3102|
                  |L1.3102|
000c1e  9b01              LDR      r3,[sp,#4]            ;686
000c20  b13b              CBZ      r3,|L1.3122|
000c22  9902              LDR      r1,[sp,#8]            ;727
000c24  2901              CMP      r1,#1                 ;727
000c26  d04f              BEQ      |L1.3272|
000c28  e12f              B        |L1.3722|
                  |L1.3114|
000c2a  e06b              B        |L1.3332|
                  |L1.3116|
000c2c  e085              B        |L1.3386|
                  |L1.3118|
000c2e  e0a4              B        |L1.3450|
                  |L1.3120|
000c30  e0dd              B        |L1.3566|
                  |L1.3122|
000c32  e02f              B        |L1.3220|
                  |L1.3124|
                          DCD      0x40048000
                  |L1.3128|
                          DCD      ||.bss||+0xa0
                  |L1.3132|
                          DCD      ||.data||
                  |L1.3136|
                          DCD      0x40044000
                  |L1.3140|
                          DCD      can2_plazma
                  |L1.3144|
                          DCD      I_MAX_IPS
                  |L1.3148|
                          DCD      I_MIN_IPS
                  |L1.3152|
                          DCD      I_ug_block_cnt
                  |L1.3156|
                          DCD      I_ug
                  |L1.3160|
                          DCD      U_up
                  |L1.3164|
                          DCD      U_MAX
                  |L1.3168|
                          DCD      U_MIN
                  |L1.3172|
                          DCD      U_up_block_cnt
                  |L1.3176|
                          DCD      TIME_VISION_PULT
                  |L1.3180|
                          DCD      work_stat
                  |L1.3184|
                          DCD      main_menu_mode
                  |L1.3188|
                          DCD      T_PROC_GS
                  |L1.3192|
                          DCD      T_PROC_MAX
                  |L1.3196|
                          DCD      T_PROC_GS_MODE
                  |L1.3200|
                          DCD      T_PROC_PS
                  |L1.3204|
                          DCD      T_PROC_PS_MODE
                  |L1.3208|
                          DCD      tumbler_stat
                  |L1.3212|
                          DCD      tumbler_stat_old
                  |L1.3216|
                          DCD      main_cnt
                  |L1.3220|
000c94  f1b80f00          CMP      r8,#0                 ;688
000c98  d002              BEQ      |L1.3232|
000c9a  9b04              LDR      r3,[sp,#0x10]         ;690
000c9c  1c5b              ADDS     r3,r3,#1              ;690
000c9e  e057              B        |L1.3408|
                  |L1.3232|
000ca0  9b03              LDR      r3,[sp,#0xc]          ;695
000ca2  1c5b              ADDS     r3,r3,#1              ;695
                  |L1.3236|
000ca4  f8ce3000          STR      r3,[lr,#0]            ;695  ; T_PROC_GS
000ca8  e077              B        |L1.3482|
000caa  bf00              NOP                            ;702
                  |L1.3244|
000cac  f8ce0000          STR      r0,[lr,#0]            ;702  ; T_PROC_GS
000cb0  48ff              LDR      r0,|L1.4272|
000cb2  2901              CMP      r1,#1                 ;702
000cb4  d025              BEQ      |L1.3330|
000cb6  4649              MOV      r1,r9                 ;962
000cb8  e003              B        |L1.3266|
                  |L1.3258|
000cba  48fd              LDR      r0,|L1.4272|
000cbc  2900              CMP      r1,#0                 ;720
000cbe  d020              BEQ      |L1.3330|
000cc0  4659              MOV      r1,r11                ;980
                  |L1.3266|
000cc2  8001              STRH     r1,[r0,#0]            ;704
000cc4  20ee              MOVS     r0,#0xee              ;705
000cc6  e01a              B        |L1.3326|
                  |L1.3272|
000cc8  9900              LDR      r1,[sp,#0]            ;727
000cca  2900              CMP      r1,#0                 ;727
000ccc  d119              BNE      |L1.3330|
000cce  f1b80f00          CMP      r8,#0                 ;729
000cd2  d002              BEQ      |L1.3290|
000cd4  9b05              LDR      r3,[sp,#0x14]         ;731
000cd6  1c5b              ADDS     r3,r3,#1              ;731
000cd8  e048              B        |L1.3436|
                  |L1.3290|
000cda  1c69              ADDS     r1,r5,#1              ;736
000cdc  f8ca1000          STR      r1,[r10,#0]           ;737  ; T_PROC_PS
000ce0  e076              B        |L1.3536|
000ce2  bf00              NOP                            ;743
                  |L1.3300|
000ce4  f8ca0000          STR      r0,[r10,#0]           ;743  ; T_PROC_PS
000ce8  48f2              LDR      r0,|L1.4276|
000cea  2a01              CMP      r2,#1                 ;743
000cec  d009              BEQ      |L1.3330|
000cee  4649              MOV      r1,r9                 ;1004
000cf0  e003              B        |L1.3322|
                  |L1.3314|
000cf2  48f0              LDR      r0,|L1.4276|
000cf4  2a00              CMP      r2,#0                 ;761
000cf6  d004              BEQ      |L1.3330|
000cf8  4659              MOV      r1,r11                ;1022
                  |L1.3322|
000cfa  8001              STRH     r1,[r0,#0]            ;763
000cfc  20f0              MOVS     r0,#0xf0              ;764
                  |L1.3326|
000cfe  f7fffffe          BL       lc640_write_int
                  |L1.3330|
000d02  e0c2              B        |L1.3722|
                  |L1.3332|
000d04  9b01              LDR      r3,[sp,#4]            ;771
000d06  b11b              CBZ      r3,|L1.3344|
000d08  9902              LDR      r1,[sp,#8]            ;812
000d0a  2901              CMP      r1,#1                 ;812
000d0c  d009              BEQ      |L1.3362|
000d0e  e0bc              B        |L1.3722|
                  |L1.3344|
000d10  f1b80f00          CMP      r8,#0                 ;773
000d14  d002              BEQ      |L1.3356|
000d16  9a07              LDR      r2,[sp,#0x1c]         ;775
000d18  1c52              ADDS     r2,r2,#1              ;775
000d1a  e039              B        |L1.3472|
                  |L1.3356|
000d1c  9b08              LDR      r3,[sp,#0x20]         ;780
000d1e  1c5b              ADDS     r3,r3,#1              ;780
000d20  e047              B        |L1.3506|
                  |L1.3362|
000d22  9900              LDR      r1,[sp,#0]            ;812
000d24  bb71              CBNZ     r1,|L1.3460|
000d26  f1b80f00          CMP      r8,#0                 ;814
000d2a  d001              BEQ      |L1.3376|
000d2c  1c76              ADDS     r6,r6,#1              ;816
000d2e  e04a              B        |L1.3526|
                  |L1.3376|
000d30  1c6d              ADDS     r5,r5,#1              ;821
000d32  e058              B        |L1.3558|
                  |L1.3380|
000d34  f8ca3000          STR      r3,[r10,#0]           ;731  ; T_PROC_PS
000d38  e04a              B        |L1.3536|
                  |L1.3386|
000d3a  9b01              LDR      r3,[sp,#4]            ;857
000d3c  b11b              CBZ      r3,|L1.3398|
000d3e  9902              LDR      r1,[sp,#8]            ;900
000d40  2901              CMP      r1,#1                 ;900
000d42  d00c              BEQ      |L1.3422|
000d44  e0a1              B        |L1.3722|
                  |L1.3398|
000d46  f1b80f00          CMP      r8,#0                 ;859
000d4a  d005              BEQ      |L1.3416|
000d4c  9b04              LDR      r3,[sp,#0x10]         ;861
000d4e  1e5b              SUBS     r3,r3,#1              ;861
                  |L1.3408|
000d50  ebc31303          RSB      r3,r3,r3,LSL #4       ;861
000d54  009b              LSLS     r3,r3,#2              ;861
000d56  e7a5              B        |L1.3236|
                  |L1.3416|
000d58  9b03              LDR      r3,[sp,#0xc]          ;866
000d5a  1e5b              SUBS     r3,r3,#1              ;866
000d5c  e7a2              B        |L1.3236|
                  |L1.3422|
000d5e  9900              LDR      r1,[sp,#0]            ;900
000d60  b981              CBNZ     r1,|L1.3460|
000d62  f1b80f00          CMP      r8,#0                 ;902
000d66  d005              BEQ      |L1.3444|
000d68  9b05              LDR      r3,[sp,#0x14]         ;904
000d6a  1e5b              SUBS     r3,r3,#1              ;904
                  |L1.3436|
000d6c  ebc31303          RSB      r3,r3,r3,LSL #4       ;904
000d70  009b              LSLS     r3,r3,#2              ;904
000d72  e7df              B        |L1.3380|
                  |L1.3444|
000d74  9b06              LDR      r3,[sp,#0x18]         ;909
000d76  1e5b              SUBS     r3,r3,#1              ;909
000d78  e7dc              B        |L1.3380|
                  |L1.3450|
000d7a  9b01              LDR      r3,[sp,#4]            ;944
000d7c  b11b              CBZ      r3,|L1.3462|
000d7e  9902              LDR      r1,[sp,#8]            ;986
000d80  2901              CMP      r1,#1                 ;986
000d82  d01a              BEQ      |L1.3514|
                  |L1.3460|
000d84  e081              B        |L1.3722|
                  |L1.3462|
000d86  f1b80f00          CMP      r8,#0                 ;946
000d8a  d010              BEQ      |L1.3502|
000d8c  9a07              LDR      r2,[sp,#0x1c]         ;948
000d8e  1e52              SUBS     r2,r2,#1              ;948
                  |L1.3472|
000d90  f44f7516          MOV      r5,#0x258             ;775
000d94  436a              MULS     r2,r5,r2              ;775
000d96  f8ce2000          STR      r2,[lr,#0]            ;775  ; T_PROC_GS
                  |L1.3482|
000d9a  4ac7              LDR      r2,|L1.4280|
000d9c  8014              STRH     r4,[r2,#0]            ;954
000d9e  f8de3000          LDR      r3,[lr,#0]            ;699  ; T_PROC_GS
000da2  4563              CMP      r3,r12                ;699
000da4  dc82              BGT      |L1.3244|
000da6  2b1e              CMP      r3,#0x1e              ;967
000da8  da87              BGE      |L1.3258|
000daa  201d              MOVS     r0,#0x1d              ;969
000dac  e77e              B        |L1.3244|
                  |L1.3502|
000dae  9b08              LDR      r3,[sp,#0x20]         ;953
000db0  1e5b              SUBS     r3,r3,#1              ;953
                  |L1.3506|
000db2  eb030383          ADD      r3,r3,r3,LSL #2       ;953
000db6  005b              LSLS     r3,r3,#1              ;953
000db8  e774              B        |L1.3236|
                  |L1.3514|
000dba  9900              LDR      r1,[sp,#0]            ;986
000dbc  bb79              CBNZ     r1,|L1.3614|
000dbe  f1b80f00          CMP      r8,#0                 ;988
000dc2  d00f              BEQ      |L1.3556|
000dc4  1e76              SUBS     r6,r6,#1              ;990
                  |L1.3526|
000dc6  f44f7316          MOV      r3,#0x258             ;816
000dca  435e              MULS     r6,r3,r6              ;816
000dcc  f8ca6000          STR      r6,[r10,#0]           ;816  ; T_PROC_PS
                  |L1.3536|
000dd0  49ba              LDR      r1,|L1.4284|
000dd2  800c              STRH     r4,[r1,#0]            ;996
000dd4  f8da3000          LDR      r3,[r10,#0]           ;740  ; T_PROC_PS
000dd8  4563              CMP      r3,r12                ;740
000dda  dc83              BGT      |L1.3300|
000ddc  2b1e              CMP      r3,#0x1e              ;1009
000dde  da88              BGE      |L1.3314|
000de0  201d              MOVS     r0,#0x1d              ;1011
000de2  e77f              B        |L1.3300|
                  |L1.3556|
000de4  1e6d              SUBS     r5,r5,#1              ;995
                  |L1.3558|
000de6  eb050385          ADD      r3,r5,r5,LSL #2       ;995
000dea  005b              LSLS     r3,r3,#1              ;995
000dec  e7a2              B        |L1.3380|
                  |L1.3566|
;;;1031   	{
;;;1032   	if(tumbler_stat==tsI)
000dee  4cb4              LDR      r4,|L1.4288|
;;;1033   		{
;;;1034   		if(work_stat!=wsGS)
;;;1035   			{
;;;1036   			if(SK_START==2)
;;;1037   				{
;;;1038   				if(SK_START_LEV)
000df0  4db4              LDR      r5,|L1.4292|
;;;1039   					{
;;;1040   					if(sk_in_drv_stat==1)
000df2  f8df82d4          LDR      r8,|L1.4296|
000df6  7820              LDRB     r0,[r4,#0]            ;1032  ; tumbler_stat
;;;1041   						{
;;;1042   						return;
;;;1043   						}
;;;1044   					}
;;;1045   				if(!SK_START_LEV)
;;;1046   					{
;;;1047   					if(sk_in_drv_stat==-1)
;;;1048   						{
;;;1049   						return;
;;;1050   						}
;;;1051   					}
;;;1052   				}
;;;1053   			work_stat=wsGS;
;;;1054   			time_proc=0;
000df8  4eb4              LDR      r6,|L1.4300|
;;;1055   			time_proc_remain=T_PROC_GS;
000dfa  4fb5              LDR      r7,|L1.4304|
000dfc  bb10              CBNZ     r0,|L1.3652|
000dfe  9800              LDR      r0,[sp,#0]            ;1034
000e00  49b4              LDR      r1,|L1.4308|
000e02  2801              CMP      r0,#1                 ;1034
000e04  d01a              BEQ      |L1.3644|
000e06  48b4              LDR      r0,|L1.4312|
000e08  8800              LDRH     r0,[r0,#0]            ;1036  ; SK_START
000e0a  2802              CMP      r0,#2                 ;1036
000e0c  d10a              BNE      |L1.3620|
000e0e  4640              MOV      r0,r8                 ;1040
000e10  882a              LDRH     r2,[r5,#0]            ;1038  ; SK_START_LEV
000e12  f9b00000          LDRSH    r0,[r0,#0]            ;1040
000e16  b11a              CBZ      r2,|L1.3616|
000e18  2801              CMP      r0,#1                 ;1040
000e1a  d039              BEQ      |L1.3728|
000e1c  e002              B        |L1.3620|
                  |L1.3614|
000e1e  e02f              B        |L1.3712|
                  |L1.3616|
000e20  1c40              ADDS     r0,r0,#1              ;1047
000e22  d035              BEQ      |L1.3728|
                  |L1.3620|
000e24  f8819000          STRB     r9,[r1,#0]            ;1053
000e28  f8c6b000          STR      r11,[r6,#0]           ;1054  ; time_proc
000e2c  9903              LDR      r1,[sp,#0xc]
;;;1056   			index_set=0;
000e2e  6039              STR      r1,[r7,#0]  ; time_proc_remain
000e30  49aa              LDR      r1,|L1.4316|
000e32  f881b004          STRB     r11,[r1,#4]
;;;1057   			restart_on_GS();
000e36  f7fffffe          BL       restart_on_GS
000e3a  e003              B        |L1.3652|
                  |L1.3644|
;;;1058   			}			
;;;1059   		else 
;;;1060   			{
;;;1061   			work_stat=wsOFF;
000e3c  f881b000          STRB     r11,[r1,#0]
;;;1062   			restart_off();
000e40  f7fffffe          BL       restart_off
                  |L1.3652|
;;;1063   			}
;;;1064   		}
;;;1065   
;;;1066   	if(tumbler_stat==tsU)
000e44  7820              LDRB     r0,[r4,#0]  ; tumbler_stat
000e46  2801              CMP      r0,#1
000e48  d11f              BNE      |L1.3722|
;;;1067   		{
;;;1068   		if(work_stat!=wsPS)
000e4a  48a2              LDR      r0,|L1.4308|
000e4c  7801              LDRB     r1,[r0,#0]  ; work_stat
000e4e  2902              CMP      r1,#2
000e50  d017              BEQ      |L1.3714|
;;;1069   			{
;;;1070   				{
;;;1071   				if(SK_START_LEV)
000e52  8829              LDRH     r1,[r5,#0]  ; SK_START_LEV
000e54  b121              CBZ      r1,|L1.3680|
;;;1072   					{
;;;1073   					if(sk_in_drv_stat==1)
000e56  f8b81000          LDRH     r1,[r8,#0]  ; sk_in_drv_stat
000e5a  2901              CMP      r1,#1
000e5c  d018              BEQ      |L1.3728|
000e5e  e003              B        |L1.3688|
                  |L1.3680|
;;;1074   						{
;;;1075   						return;
;;;1076   						}
;;;1077   					}
;;;1078   				if(!SK_START_LEV)
;;;1079   					{
;;;1080   					if(sk_in_drv_stat==-1)
000e60  f9b81000          LDRSH    r1,[r8,#0]  ; sk_in_drv_stat
000e64  1c49              ADDS     r1,r1,#1
000e66  d013              BEQ      |L1.3728|
                  |L1.3688|
;;;1081   						{
;;;1082   						return;
;;;1083   						}
;;;1084   					}
;;;1085   				}
;;;1086   			work_stat=wsPS;
000e68  2102              MOVS     r1,#2
000e6a  7001              STRB     r1,[r0,#0]
;;;1087   			time_proc=0;
;;;1088   			time_proc_remain=T_PROC_PS;
000e6c  f8c6b000          STR      r11,[r6,#0]  ; time_proc
000e70  f8da1000          LDR      r1,[r10,#0]  ; T_PROC_PS
;;;1089   			index_set=0;
000e74  6039              STR      r1,[r7,#0]  ; time_proc_remain
000e76  4999              LDR      r1,|L1.4316|
000e78  f881b004          STRB     r11,[r1,#4]
;;;1090   			restart_on_PS();
000e7c  f7fffffe          BL       restart_on_PS
                  |L1.3712|
000e80  e003              B        |L1.3722|
                  |L1.3714|
;;;1091   			}			
;;;1092   		else
;;;1093   			{
;;;1094   			work_stat=wsOFF;
000e82  f880b000          STRB     r11,[r0,#0]
;;;1095   			restart_off();
000e86  f7fffffe          BL       restart_off
                  |L1.3722|
;;;1096   			}
;;;1097   		}
;;;1098   	}
;;;1099   
;;;1100   CAN_IN_AN_end:
;;;1101   bIN=0;
000e8a  4995              LDR      r1,|L1.4320|
000e8c  f881b007          STRB     r11,[r1,#7]
                  |L1.3728|
;;;1102   }
000e90  b009              ADD      sp,sp,#0x24
000e92  e4f3              B        |L1.2172|
;;;1103   //-----------------------------------------------
                          ENDP

                  can_in_an1 PROC
;;;1104   void can_in_an1(void)
000e94  e92d5ff0          PUSH     {r4-r12,lr}
;;;1105   {
;;;1106   //char i;
;;;1107   //signed short temp_SS;
;;;1108   char slave_num;
;;;1109   
;;;1110   //if(!bIN2) goto CAN_IN_AN1_end; 
;;;1111   
;;;1112   //can_debug_plazma[1][2]++;
;;;1113   can_rotor[1]++;
000e98  4992              LDR      r1,|L1.4324|
;;;1114   
;;;1115   if((RXBUFF[0]==sub_ind1)&&(RXBUFF[1]==PUTID)&&(RXBUFF[2]==0xdd)&&(RXBUFF[3]==0xdd)&&(sub_ind==6))
;;;1116   	{
;;;1117   	mess_send(MESS2IND_HNDL,PARAM_U_AVT_GOOD,0,10);
000e9a  2500              MOVS     r5,#0
000e9c  f1a10450          SUB      r4,r1,#0x50           ;1115
000ea0  7848              LDRB     r0,[r1,#1]            ;1113  ; can_rotor
;;;1118   	can_reset_cnt=0;
000ea2  4e8f              LDR      r6,|L1.4320|
000ea4  1c40              ADDS     r0,r0,#1              ;1113
000ea6  7048              STRB     r0,[r1,#1]            ;1113
000ea8  488c              LDR      r0,|L1.4316|
000eaa  7821              LDRB     r1,[r4,#0]            ;1115  ; RXBUFF
000eac  f9902002          LDRSB    r2,[r0,#2]            ;1115  ; a_ind
000eb0  4291              CMP      r1,r2                 ;1115
000eb2  d112              BNE      |L1.3802|
000eb4  7861              LDRB     r1,[r4,#1]            ;1115  ; RXBUFF
000eb6  2991              CMP      r1,#0x91              ;1115
000eb8  d10f              BNE      |L1.3802|
000eba  78a1              LDRB     r1,[r4,#2]            ;1115  ; RXBUFF
000ebc  29dd              CMP      r1,#0xdd              ;1115
000ebe  d177              BNE      |L1.4016|
000ec0  78e1              LDRB     r1,[r4,#3]            ;1115  ; RXBUFF
000ec2  29dd              CMP      r1,#0xdd              ;1115
000ec4  d174              BNE      |L1.4016|
000ec6  7840              LDRB     r0,[r0,#1]            ;1115  ; a_ind
000ec8  2806              CMP      r0,#6                 ;1115
000eca  d171              BNE      |L1.4016|
000ecc  230a              MOVS     r3,#0xa               ;1117
000ece  2200              MOVS     r2,#0                 ;1117
000ed0  21d9              MOVS     r1,#0xd9              ;1117
000ed2  20d7              MOVS     r0,#0xd7              ;1117
000ed4  f7fffffe          BL       mess_send
000ed8  82b5              STRH     r5,[r6,#0x14]
                  |L1.3802|
;;;1119   	}
;;;1120   
;;;1121   
;;;1122   if((RXBUFF[1]==PUTTM1)&&((RXBUFF[0]&0x1f)>=0)&&((RXBUFF[0]&0x1f)<32))
000eda  7860              LDRB     r0,[r4,#1]  ; RXBUFF
;;;1123        {
;;;1124   	can_debug_plazma[1][2]++;
;;;1125        slave_num=RXBUFF[0]&0x1f;
;;;1126        
;;;1127        if((RXBUFF[0]&0xe0)==0)bps[slave_num]._device=dSRC;
000edc  4f82              LDR      r7,|L1.4328|
000ede  f04f0803          MOV      r8,#3
;;;1128        else if((RXBUFF[0]&0xe0)==0x40)bps[slave_num]._device=dINV;
000ee2  f04f0902          MOV      r9,#2
000ee6  f04f0a05          MOV      r10,#5
000eea  f04f0b0a          MOV      r11,#0xa              ;1117
000eee  28da              CMP      r0,#0xda              ;1122
000ef0  d12f              BNE      |L1.3922|
000ef2  497c              LDR      r1,|L1.4324|
000ef4  310a              ADDS     r1,r1,#0xa            ;1124
000ef6  7b08              LDRB     r0,[r1,#0xc]          ;1124  ; can_debug_plazma
000ef8  1c40              ADDS     r0,r0,#1              ;1124
000efa  7308              STRB     r0,[r1,#0xc]          ;1124
000efc  7821              LDRB     r1,[r4,#0]            ;1125  ; RXBUFF
000efe  f001001f          AND      r0,r1,#0x1f           ;1125
000f02  094a              LSRS     r2,r1,#5              ;1127
000f04  d029              BEQ      |L1.3930|
000f06  ebb91f51          CMP      r9,r1,LSR #5
000f0a  d105              BNE      |L1.3864|
000f0c  ebc002c0          RSB      r2,r0,r0,LSL #3
000f10  eb020242          ADD      r2,r2,r2,LSL #1
000f14  f807a022          STRB     r10,[r7,r2,LSL #2]
                  |L1.3864|
;;;1129        	
;;;1130   	bps[slave_num]._buff[0]=RXBUFF[2]; 
000f18  ebc001c0          RSB      r1,r0,r0,LSL #3
000f1c  eb010141          ADD      r1,r1,r1,LSL #1
000f20  eb070181          ADD      r1,r7,r1,LSL #2
000f24  78a2              LDRB     r2,[r4,#2]  ; RXBUFF
000f26  718a              STRB     r2,[r1,#6]
;;;1131   	bps[slave_num]._buff[1]=RXBUFF[3];
000f28  78e2              LDRB     r2,[r4,#3]  ; RXBUFF
000f2a  71ca              STRB     r2,[r1,#7]
;;;1132   	bps[slave_num]._buff[2]=RXBUFF[4];
000f2c  7922              LDRB     r2,[r4,#4]  ; RXBUFF
000f2e  720a              STRB     r2,[r1,#8]
;;;1133   	bps[slave_num]._buff[3]=RXBUFF[5];
000f30  7962              LDRB     r2,[r4,#5]  ; RXBUFF
000f32  724a              STRB     r2,[r1,#9]
;;;1134   	bps[slave_num]._buff[4]=RXBUFF[6];
000f34  79a2              LDRB     r2,[r4,#6]  ; RXBUFF
000f36  728a              STRB     r2,[r1,#0xa]
;;;1135   	bps[slave_num]._buff[5]=RXBUFF[7];
000f38  79e2              LDRB     r2,[r4,#7]  ; RXBUFF
000f3a  72ca              STRB     r2,[r1,#0xb]
;;;1136   	
;;;1137   	bps[slave_num]._cnt=0;
000f3c  70cd              STRB     r5,[r1,#3]
;;;1138   	bps[slave_num]._is_on_cnt=10;
000f3e  f881b034          STRB     r11,[r1,#0x34]
;;;1139   	
;;;1140    	if((bps[slave_num]._cnt==0)&&(bps[slave_num]._av&(1<<3))) avar_bps_hndl(slave_num,3,0);
000f42  7849              LDRB     r1,[r1,#1]
000f44  0709              LSLS     r1,r1,#28
000f46  d503              BPL      |L1.3920|
000f48  2200              MOVS     r2,#0
000f4a  2103              MOVS     r1,#3
000f4c  f7fffffe          BL       avar_bps_hndl
                  |L1.3920|
;;;1141   
;;;1142   	can_reset_cnt=0;
000f50  82b5              STRH     r5,[r6,#0x14]
                  |L1.3922|
;;;1143        }
;;;1144   
;;;1145   if((RXBUFF[1]==PUTTM2)&&((RXBUFF[0]&0x1f)>=0)&&((RXBUFF[0]&0x1f)<32))
000f52  7860              LDRB     r0,[r4,#1]  ; RXBUFF
000f54  28db              CMP      r0,#0xdb
000f56  d007              BEQ      |L1.3944|
000f58  e02a              B        |L1.4016|
                  |L1.3930|
000f5a  ebc002c0          RSB      r2,r0,r0,LSL #3       ;1127
000f5e  eb020242          ADD      r2,r2,r2,LSL #1       ;1127
000f62  f8078022          STRB     r8,[r7,r2,LSL #2]     ;1127
000f66  e7d7              B        |L1.3864|
                  |L1.3944|
;;;1146        {
;;;1147        slave_num=RXBUFF[0]&0x1f;  
000f68  7821              LDRB     r1,[r4,#0]  ; RXBUFF
000f6a  f001001f          AND      r0,r1,#0x1f
;;;1148   
;;;1149        if((RXBUFF[0]&0xe0)==0)bps[slave_num]._device=dSRC;
000f6e  094a              LSRS     r2,r1,#5
000f70  d024              BEQ      |L1.4028|
;;;1150        else if((RXBUFF[0]&0xe0)==0x40)bps[slave_num]._device=dINV;
000f72  ebb91f51          CMP      r9,r1,LSR #5
000f76  d105              BNE      |L1.3972|
000f78  ebc002c0          RSB      r2,r0,r0,LSL #3
000f7c  eb020242          ADD      r2,r2,r2,LSL #1
000f80  f807a022          STRB     r10,[r7,r2,LSL #2]
                  |L1.3972|
;;;1151        
;;;1152   	bps[slave_num]._buff[6]=RXBUFF[2]; 
000f84  ebc000c0          RSB      r0,r0,r0,LSL #3
000f88  eb000040          ADD      r0,r0,r0,LSL #1
000f8c  eb070080          ADD      r0,r7,r0,LSL #2
000f90  78a1              LDRB     r1,[r4,#2]  ; RXBUFF
000f92  7301              STRB     r1,[r0,#0xc]
;;;1153   	bps[slave_num]._buff[7]=RXBUFF[3];
000f94  78e1              LDRB     r1,[r4,#3]  ; RXBUFF
000f96  7341              STRB     r1,[r0,#0xd]
;;;1154   	bps[slave_num]._buff[8]=RXBUFF[4];
000f98  7921              LDRB     r1,[r4,#4]  ; RXBUFF
000f9a  7381              STRB     r1,[r0,#0xe]
;;;1155   	bps[slave_num]._buff[9]=RXBUFF[5];
000f9c  7961              LDRB     r1,[r4,#5]  ; RXBUFF
000f9e  73c1              STRB     r1,[r0,#0xf]
;;;1156   	bps[slave_num]._buff[10]=RXBUFF[6];
000fa0  79a1              LDRB     r1,[r4,#6]  ; RXBUFF
000fa2  7401              STRB     r1,[r0,#0x10]
;;;1157   	bps[slave_num]._buff[11]=RXBUFF[7];
000fa4  79e1              LDRB     r1,[r4,#7]  ; RXBUFF
000fa6  7441              STRB     r1,[r0,#0x11]
;;;1158   	
;;;1159   	bps[slave_num]._cnt=0;
000fa8  70c5              STRB     r5,[r0,#3]
;;;1160   	bps[slave_num]._is_on_cnt=10; 
000faa  f880b034          STRB     r11,[r0,#0x34]
;;;1161   
;;;1162      	//if((src[slave_num]._cnt==0)&&(src[slave_num]._av_net)) avar_s_hndl(slave_num,3,0); 
;;;1163   	can_reset_cnt=0;
000fae  82b5              STRH     r5,[r6,#0x14]
                  |L1.4016|
;;;1164        }
;;;1165   
;;;1166   
;;;1167   if( ((RXBUFF[0]&0x1f)==8)&&((RXBUFF[1])==PUTTM) )
000fb0  7820              LDRB     r0,[r4,#0]  ; RXBUFF
000fb2  f000021f          AND      r2,r0,#0x1f
000fb6  2a08              CMP      r2,#8
000fb8  d007              BEQ      |L1.4042|
000fba  e015              B        |L1.4072|
                  |L1.4028|
000fbc  ebc002c0          RSB      r2,r0,r0,LSL #3       ;1149
000fc0  eb020242          ADD      r2,r2,r2,LSL #1       ;1149
000fc4  f8078022          STRB     r8,[r7,r2,LSL #2]     ;1149
000fc8  e7dc              B        |L1.3972|
                  |L1.4042|
000fca  7860              LDRB     r0,[r4,#1]  ; RXBUFF
000fcc  28de              CMP      r0,#0xde
000fce  d10b              BNE      |L1.4072|
;;;1168        {
;;;1169        adc_buff_ext_[0]=*((short*)&RXBUFF[2]);
000fd0  4846              LDR      r0,|L1.4332|
000fd2  8861              LDRH     r1,[r4,#2]  ; RXBUFF
000fd4  8001              STRH     r1,[r0,#0]
;;;1170        adc_buff_ext_[1]=*((short*)&RXBUFF[4]);
000fd6  88a1              LDRH     r1,[r4,#4]  ; RXBUFF
000fd8  8041              STRH     r1,[r0,#2]
;;;1171        adc_buff_ext_[2]=*((short*)&RXBUFF[6]);
000fda  88e1              LDRH     r1,[r4,#6]  ; RXBUFF
000fdc  8081              STRH     r1,[r0,#4]
;;;1172   //	if((adc_buff_ext_[2]>=-50) && (adc_buff_ext_[2]<=100))
;;;1173   		{
;;;1174   		t_ext_can=adc_buff_ext_[2];
000fde  4844              LDR      r0,|L1.4336|
000fe0  8001              STRH     r1,[r0,#0]
;;;1175   		t_ext_can_nd=0;
000fe2  4844              LDR      r0,|L1.4340|
000fe4  7005              STRB     r5,[r0,#0]
;;;1176   		}
;;;1177   		t_ext_can=adc_buff_ext_[2];
;;;1178   	//ext_can_cnt++;
;;;1179   	can_reset_cnt=0;
000fe6  82b5              STRH     r5,[r6,#0x14]
                  |L1.4072|
;;;1180        }
;;;1181   
;;;1182   if( ((RXBUFF[0]&0x1f)==9)&&((RXBUFF[1])==PUTTM) )
000fe8  2a09              CMP      r2,#9
000fea  d10d              BNE      |L1.4104|
000fec  7860              LDRB     r0,[r4,#1]  ; RXBUFF
000fee  28de              CMP      r0,#0xde
000ff0  d10a              BNE      |L1.4104|
;;;1183        {
;;;1184        vvod_pos=RXBUFF[2];
000ff2  4941              LDR      r1,|L1.4344|
000ff4  78a0              LDRB     r0,[r4,#2]  ; RXBUFF
000ff6  8008              STRH     r0,[r1,#0]
;;;1185   	ext_can_cnt=RXBUFF[3];
000ff8  4940              LDR      r1,|L1.4348|
000ffa  78e0              LDRB     r0,[r4,#3]  ; RXBUFF
000ffc  7008              STRB     r0,[r1,#0]
;;;1186   	if(ext_can_cnt<10)bRESET_EXT=0;
000ffe  280a              CMP      r0,#0xa
001000  d201              BCS      |L1.4102|
001002  483f              LDR      r0,|L1.4352|
001004  7005              STRB     r5,[r0,#0]
                  |L1.4102|
;;;1187   	can_reset_cnt=0;
001006  82b5              STRH     r5,[r6,#0x14]
                  |L1.4104|
;;;1188        }
;;;1189   
;;;1190   if( ((RXBUFF[0]&0x1f)==10)&&((RXBUFF[1])==PUTTM) )
;;;1191        {
;;;1192        power_current=*((signed short*)&RXBUFF[2]);
001008  4b3e              LDR      r3,|L1.4356|
;;;1193        power_summary=*((signed long*)&RXBUFF[4]);
00100a  4f3f              LDR      r7,|L1.4360|
00100c  2a0a              CMP      r2,#0xa               ;1190
00100e  d107              BNE      |L1.4128|
001010  7860              LDRB     r0,[r4,#1]            ;1190  ; RXBUFF
001012  28de              CMP      r0,#0xde              ;1190
001014  d104              BNE      |L1.4128|
001016  8860              LDRH     r0,[r4,#2]            ;1192  ; RXBUFF
001018  8018              STRH     r0,[r3,#0]            ;1192
00101a  6860              LDR      r0,[r4,#4]  ; RXBUFF
;;;1194   	//ext_can_cnt++;
;;;1195   	can_reset_cnt=0;
00101c  6038              STR      r0,[r7,#0]  ; power_summary
00101e  82b5              STRH     r5,[r6,#0x14]
                  |L1.4128|
;;;1196        }
;;;1197   
;;;1198   
;;;1199   if( ((RXBUFF[0]&0x1f)==20)&&((RXBUFF[1])==PUTTM) )
;;;1200        {
;;;1201        eb2_data[0]=RXBUFF[2];
001020  483a              LDR      r0,|L1.4364|
001022  2a14              CMP      r2,#0x14              ;1199
001024  d113              BNE      |L1.4174|
001026  7861              LDRB     r1,[r4,#1]            ;1199  ; RXBUFF
001028  29de              CMP      r1,#0xde              ;1199
00102a  d110              BNE      |L1.4174|
00102c  78a1              LDRB     r1,[r4,#2]  ; RXBUFF
00102e  7001              STRB     r1,[r0,#0]
;;;1202   	eb2_data[1]=RXBUFF[3];
001030  78e1              LDRB     r1,[r4,#3]  ; RXBUFF
001032  7041              STRB     r1,[r0,#1]
;;;1203        eb2_data[2]=RXBUFF[4];
001034  7921              LDRB     r1,[r4,#4]  ; RXBUFF
001036  7081              STRB     r1,[r0,#2]
;;;1204   	eb2_data[3]=RXBUFF[5];
001038  7961              LDRB     r1,[r4,#5]  ; RXBUFF
00103a  70c1              STRB     r1,[r0,#3]
;;;1205   	eb2_data[4]=RXBUFF[6];
00103c  79a1              LDRB     r1,[r4,#6]  ; RXBUFF
00103e  7101              STRB     r1,[r0,#4]
;;;1206   	eb2_data[5]=RXBUFF[7];
001040  79e1              LDRB     r1,[r4,#7]  ; RXBUFF
001042  7141              STRB     r1,[r0,#5]
;;;1207        power_current=*((signed short*)&RXBUFF[2]);
001044  8861              LDRH     r1,[r4,#2]  ; RXBUFF
001046  8019              STRH     r1,[r3,#0]
;;;1208        power_summary=*((signed long*)&RXBUFF[4]);
001048  6861              LDR      r1,[r4,#4]  ; RXBUFF
;;;1209   
;;;1210   	 can_reset_cnt=0;
00104a  6039              STR      r1,[r7,#0]  ; power_summary
00104c  82b5              STRH     r5,[r6,#0x14]
                  |L1.4174|
;;;1211        }
;;;1212   
;;;1213   if( ((RXBUFF[0]&0x1f)==21)&&((RXBUFF[1])==PUTTM) )
;;;1214        {
;;;1215        eb2_data[6]=RXBUFF[2];
;;;1216   	eb2_data[7]=RXBUFF[3];
;;;1217        eb2_data[8]=RXBUFF[4];
;;;1218   	eb2_data[9]=RXBUFF[5];
;;;1219   	eb2_data[10]=RXBUFF[6];
;;;1220   	eb2_data[11]=RXBUFF[7];
;;;1221   	eb2_data_short[6]=*((short*)&eb2_data[6]);
00104e  4930              LDR      r1,|L1.4368|
001050  2a15              CMP      r2,#0x15              ;1213
001052  d111              BNE      |L1.4216|
001054  7863              LDRB     r3,[r4,#1]            ;1213  ; RXBUFF
001056  2bde              CMP      r3,#0xde              ;1213
001058  d10e              BNE      |L1.4216|
00105a  78a3              LDRB     r3,[r4,#2]            ;1215  ; RXBUFF
00105c  7183              STRB     r3,[r0,#6]            ;1215
00105e  78e3              LDRB     r3,[r4,#3]            ;1216  ; RXBUFF
001060  71c3              STRB     r3,[r0,#7]            ;1216
001062  7923              LDRB     r3,[r4,#4]            ;1217  ; RXBUFF
001064  7203              STRB     r3,[r0,#8]            ;1217
001066  7963              LDRB     r3,[r4,#5]            ;1218  ; RXBUFF
001068  7243              STRB     r3,[r0,#9]            ;1218
00106a  79a3              LDRB     r3,[r4,#6]            ;1219  ; RXBUFF
00106c  7283              STRB     r3,[r0,#0xa]          ;1219
00106e  79e3              LDRB     r3,[r4,#7]            ;1220  ; RXBUFF
001070  72c3              STRB     r3,[r0,#0xb]          ;1220
001072  88c3              LDRH     r3,[r0,#6]  ; eb2_data
001074  818b              STRH     r3,[r1,#0xc]
;;;1222   
;;;1223   	can_reset_cnt=0;
001076  82b5              STRH     r5,[r6,#0x14]
                  |L1.4216|
;;;1224        }
;;;1225   
;;;1226   if( ((RXBUFF[0]&0x1f)==22)&&((RXBUFF[1])==PUTTM) )
001078  2a16              CMP      r2,#0x16
00107a  d115              BNE      |L1.4264|
00107c  7863              LDRB     r3,[r4,#1]  ; RXBUFF
00107e  2bde              CMP      r3,#0xde
001080  d112              BNE      |L1.4264|
;;;1227        {
;;;1228        eb2_data[12]=RXBUFF[2];
001082  78a3              LDRB     r3,[r4,#2]  ; RXBUFF
001084  7303              STRB     r3,[r0,#0xc]
;;;1229   	eb2_data[13]=RXBUFF[3];
001086  78e3              LDRB     r3,[r4,#3]  ; RXBUFF
001088  7343              STRB     r3,[r0,#0xd]
;;;1230        eb2_data[14]=RXBUFF[4];
00108a  7923              LDRB     r3,[r4,#4]  ; RXBUFF
00108c  7383              STRB     r3,[r0,#0xe]
;;;1231   	eb2_data[15]=RXBUFF[5];
00108e  7963              LDRB     r3,[r4,#5]  ; RXBUFF
001090  73c3              STRB     r3,[r0,#0xf]
;;;1232   	eb2_data[16]=RXBUFF[6];
001092  79a3              LDRB     r3,[r4,#6]  ; RXBUFF
001094  7403              STRB     r3,[r0,#0x10]
;;;1233   	eb2_data[17]=RXBUFF[7];
001096  79e3              LDRB     r3,[r4,#7]  ; RXBUFF
001098  7443              STRB     r3,[r0,#0x11]
;;;1234   	eb2_data_short[0]=*((short*)&eb2_data[12]);
00109a  8983              LDRH     r3,[r0,#0xc]  ; eb2_data
00109c  800b              STRH     r3,[r1,#0]
;;;1235   	eb2_data_short[1]=*((short*)&eb2_data[14]);
00109e  89c3              LDRH     r3,[r0,#0xe]  ; eb2_data
0010a0  804b              STRH     r3,[r1,#2]
;;;1236   	eb2_data_short[2]=*((short*)&eb2_data[16]);
0010a2  8a03              LDRH     r3,[r0,#0x10]  ; eb2_data
0010a4  808b              STRH     r3,[r1,#4]
;;;1237   
;;;1238   	can_reset_cnt=0;
0010a6  82b5              STRH     r5,[r6,#0x14]
                  |L1.4264|
;;;1239        }
;;;1240   
;;;1241   if( ((RXBUFF[0]&0x1f)==23)&&((RXBUFF[1])==PUTTM) )
0010a8  2a17              CMP      r2,#0x17
0010aa  d148              BNE      |L1.4414|
0010ac  7862              LDRB     r2,[r4,#1]  ; RXBUFF
0010ae  e031              B        |L1.4372|
                  |L1.4272|
                          DCD      T_PROC_GS_MODE
                  |L1.4276|
                          DCD      T_PROC_PS_MODE
                  |L1.4280|
                          DCD      T_PROC_GS_block_cnt
                  |L1.4284|
                          DCD      T_PROC_PS_block_cnt
                  |L1.4288|
                          DCD      tumbler_stat
                  |L1.4292|
                          DCD      SK_START_LEV
                  |L1.4296|
                          DCD      sk_in_drv_stat
                  |L1.4300|
                          DCD      time_proc
                  |L1.4304|
                          DCD      time_proc_remain
                  |L1.4308|
                          DCD      work_stat
                  |L1.4312|
                          DCD      SK_START
                  |L1.4316|
                          DCD      a_ind
                  |L1.4320|
                          DCD      ||.data||
                  |L1.4324|
                          DCD      ||.bss||+0x174
                  |L1.4328|
                          DCD      bps
                  |L1.4332|
                          DCD      adc_buff_ext_
                  |L1.4336|
                          DCD      t_ext_can
                  |L1.4340|
                          DCD      t_ext_can_nd
                  |L1.4344|
                          DCD      vvod_pos
                  |L1.4348|
                          DCD      ext_can_cnt
                  |L1.4352|
                          DCD      bRESET_EXT
                  |L1.4356|
                          DCD      power_current
                  |L1.4360|
                          DCD      power_summary
                  |L1.4364|
                          DCD      eb2_data
                  |L1.4368|
                          DCD      eb2_data_short
                  |L1.4372|
001114  2ade              CMP      r2,#0xde
001116  d112              BNE      |L1.4414|
;;;1242        {
;;;1243        eb2_data[18]=RXBUFF[2];
001118  78a2              LDRB     r2,[r4,#2]  ; RXBUFF
00111a  7482              STRB     r2,[r0,#0x12]
;;;1244   	eb2_data[19]=RXBUFF[3];
00111c  78e2              LDRB     r2,[r4,#3]  ; RXBUFF
00111e  74c2              STRB     r2,[r0,#0x13]
;;;1245        eb2_data[20]=RXBUFF[4];
001120  7922              LDRB     r2,[r4,#4]  ; RXBUFF
001122  7502              STRB     r2,[r0,#0x14]
;;;1246   	eb2_data[21]=RXBUFF[5];
001124  7962              LDRB     r2,[r4,#5]  ; RXBUFF
001126  7542              STRB     r2,[r0,#0x15]
;;;1247   	eb2_data[22]=RXBUFF[6];
001128  79a2              LDRB     r2,[r4,#6]  ; RXBUFF
00112a  7582              STRB     r2,[r0,#0x16]
;;;1248   	eb2_data[23]=RXBUFF[7];
00112c  79e2              LDRB     r2,[r4,#7]  ; RXBUFF
00112e  75c2              STRB     r2,[r0,#0x17]
;;;1249   	eb2_data_short[3]=*((short*)&eb2_data[18]);
001130  8a42              LDRH     r2,[r0,#0x12]  ; eb2_data
001132  80ca              STRH     r2,[r1,#6]
;;;1250   	eb2_data_short[4]=*((short*)&eb2_data[20]);
001134  8a82              LDRH     r2,[r0,#0x14]  ; eb2_data
001136  810a              STRH     r2,[r1,#8]
;;;1251   	eb2_data_short[5]=*((short*)&eb2_data[22]);
001138  8ac0              LDRH     r0,[r0,#0x16]  ; eb2_data
00113a  8148              STRH     r0,[r1,#0xa]
;;;1252   
;;;1253   	can_reset_cnt=0;
00113c  82b5              STRH     r5,[r6,#0x14]
                  |L1.4414|
;;;1254        }
;;;1255   
;;;1256   //CAN_IN_AN1_end:
;;;1257   bIN2=0;
00113e  7235              STRB     r5,[r6,#8]
;;;1258   }
001140  e8bd9ff0          POP      {r4-r12,pc}
;;;1259   
                          ENDP

                  CAN_ISR_Rx1 PROC
;;;1270   ***************************************************************************/ 
;;;1271   void CAN_ISR_Rx1( void )
001144  b570              PUSH     {r4-r6,lr}
;;;1272   {
;;;1273   unsigned int buf;
;;;1274   unsigned int *pDest;
;;;1275   char temp;
;;;1276   char *ptr,j;
;;;1277   //can_cnt++;
;;;1278   
;;;1279   rotor_can[0]++;
001146  48e8              LDR      r0,|L1.5352|
;;;1280   
;;;1281     if (!(LPC_CAN1->RFS & 0xC0000400L))
001148  4ce8              LDR      r4,|L1.5356|
00114a  8801              LDRH     r1,[r0,#0]            ;1279  ; rotor_can
00114c  1c49              ADDS     r1,r1,#1              ;1279
00114e  8001              STRH     r1,[r0,#0]            ;1279
001150  6a21              LDR      r1,[r4,#0x20]
001152  4ae7              LDR      r2,|L1.5360|
001154  4211              TST      r1,r2
001156  d136              BNE      |L1.4550|
;;;1282     { // 11-bit ID, no RTR, matched a filter
;;;1283   
;;;1284   rotor_can[1]++;
001158  8841              LDRH     r1,[r0,#2]  ; rotor_can
00115a  1c49              ADDS     r1,r1,#1
00115c  8041              STRH     r1,[r0,#2]
;;;1285       // initialize destination pointer
;;;1286       // filter number is in lower 10 bits of C1RFS
;;;1287       pDest = (unsigned int *) &(gFullCANList[(LPC_CAN1->RFS & 0x000003FFL)].Dat1);
00115e  6a20              LDR      r0,[r4,#0x20]
;;;1288       
;;;1289       // calculate contents for first entry into FullCAN list
;;;1290       buf = LPC_CAN1->RFS & 0xC00F0000L; // mask FF, RTR and DLC
001160  6a22              LDR      r2,[r4,#0x20]
001162  f3c00009          UBFX     r0,r0,#0,#10          ;1287
001166  eb000140          ADD      r1,r0,r0,LSL #1       ;1287
00116a  48df              LDR      r0,|L1.5352|
00116c  300c              ADDS     r0,r0,#0xc            ;1287
00116e  eb000181          ADD      r1,r0,r1,LSL #2       ;1287
001172  4be0              LDR      r3,|L1.5364|
001174  401a              ANDS     r2,r2,r3
;;;1291       buf |= 0x01002000L; // set semaphore to 01b and CAN port to 1
001176  4be0              LDR      r3,|L1.5368|
001178  431a              ORRS     r2,r2,r3
;;;1292       buf |= LPC_CAN1->RID & 0x000007FFL; // get CAN message ID
00117a  6a63              LDR      r3,[r4,#0x24]
00117c  f3c3030a          UBFX     r3,r3,#0,#11
001180  4313              ORRS     r3,r3,r2
;;;1293   
;;;1294       // now copy entire message to FullCAN list
;;;1295       *pDest = buf; 
;;;1296       pDest++; // set to gFullCANList[(C1RFS & 0x000003FFL)].DatA
;;;1297       *pDest = LPC_CAN1->RDA; 
001182  6aa2              LDR      r2,[r4,#0x28]
;;;1298       pDest++; // set to gFullCANList[(C1RFS & 0x000003FFL)].DatB
;;;1299       *pDest = LPC_CAN1->RDB; 
001184  604a              STR      r2,[r1,#4]
001186  6ae2              LDR      r2,[r4,#0x2c]
;;;1300   
;;;1301       // now set the sempahore to complete
;;;1302       buf |= 0x03000000L; // set semaphore to 11b
001188  608a              STR      r2,[r1,#8]
00118a  f0437240          ORR      r2,r3,#0x3000000
;;;1303       pDest -= 2; // set to gFullCANList[(C1RFS & 0x000003FFL)].Dat1
;;;1304       *pDest = buf; 
;;;1305       
;;;1306   	temp=(char)gFullCANList[0].DatA;
00118e  600a              STR      r2,[r1,#0]
001190  6841              LDR      r1,[r0,#4]  ; gFullCANList
001192  b2ca              UXTB     r2,r1
;;;1307   	if(temp==0x30) bR=0;
001194  49d9              LDR      r1,|L1.5372|
001196  2a30              CMP      r2,#0x30
001198  d009              BEQ      |L1.4526|
;;;1308   	else bR++;
00119a  798a              LDRB     r2,[r1,#6]  ; bR
00119c  1c52              ADDS     r2,r2,#1
                  |L1.4510|
00119e  718a              STRB     r2,[r1,#6]
;;;1309   	
;;;1310   	temp=(char)(((gFullCANList[0].Dat1)>>16)&0x0f); 
0011a0  c802              LDM      r0!,{r1}  ; gFullCANList
;;;1311        
;;;1312        ptr=(char*)(&gFullCANList[0].DatA);
;;;1313   	
;;;1314   	for(j=0;j<temp;j++)
;;;1315   		{
;;;1316   		RXBUFF[j]=*ptr;
0011a2  4bd1              LDR      r3,|L1.5352|
0011a4  f3c14203          UBFX     r2,r1,#16,#4          ;1310
0011a8  2100              MOVS     r1,#0                 ;1314
0011aa  3324              ADDS     r3,r3,#0x24
0011ac  e007              B        |L1.4542|
                  |L1.4526|
0011ae  2200              MOVS     r2,#0                 ;1307
0011b0  e7f5              B        |L1.4510|
0011b2  bf00              NOP      
                  |L1.4532|
0011b4  f8105b01          LDRB     r5,[r0],#1
0011b8  545d              STRB     r5,[r3,r1]
0011ba  1c49              ADDS     r1,r1,#1              ;1314
0011bc  b2c9              UXTB     r1,r1                 ;1314
                  |L1.4542|
0011be  4291              CMP      r1,r2                 ;1314
0011c0  d3f8              BCC      |L1.4532|
;;;1317   		ptr++;
;;;1318   		}
;;;1319   	can_in_an1();
0011c2  f7fffffe          BL       can_in_an1
                  |L1.4550|
;;;1320   	    
;;;1321       
;;;1322     }
;;;1323   
;;;1324     LPC_CAN1->CMR = 0x04; // release receive buffer
0011c6  2004              MOVS     r0,#4
0011c8  6060              STR      r0,[r4,#4]
;;;1325   }
0011ca  bd70              POP      {r4-r6,pc}
;;;1326   
                          ENDP

                  CAN_ISR_Rx2 PROC
;;;1332   ***************************************************************************/ 
;;;1333   void CAN_ISR_Rx2( void ) 
0011cc  b510              PUSH     {r4,lr}
;;;1334   {
;;;1335   unsigned int buf;
;;;1336   unsigned int *pDest;
;;;1337   char temp;
;;;1338   //char /**ptr,*/j;
;;;1339   //can_cnt++;
;;;1340   
;;;1341   //rotor_can[0]++;
;;;1342   //can_debug_plazma[0][0]++;
;;;1343   //if(C1ICR & 0x00000001L)
;;;1344   //	{
;;;1345   //	can_debug_plazma[0][0]++;
;;;1346   
;;;1347   
;;;1348   
;;;1349   	if (!(LPC_CAN2->RFS & 0xC0000400L))
0011ce  4ccc              LDR      r4,|L1.5376|
0011d0  6a20              LDR      r0,[r4,#0x20]
0011d2  49c7              LDR      r1,|L1.5360|
0011d4  4208              TST      r0,r1
0011d6  d13c              BNE      |L1.4690|
;;;1350       		{ // 11-bit ID, no RTR, matched a filter
;;;1351   			
;;;1352       		//rotor_can[1]++;
;;;1353       		// initialize destination pointer
;;;1354       		// filter number is in lower 10 bits of C1RFS
;;;1355   			//plazma_can4=(char)((LPC_CAN2->RFS>>16) & 0x000000FFL);
;;;1356       		pDest = (unsigned int *) &(gFullCANList[(LPC_CAN2->RFS & 0x000003FFL)].Dat1);
0011d8  6a20              LDR      r0,[r4,#0x20]
0011da  49c3              LDR      r1,|L1.5352|
0011dc  f3c00009          UBFX     r0,r0,#0,#10
0011e0  eb000040          ADD      r0,r0,r0,LSL #1
0011e4  310c              ADDS     r1,r1,#0xc
0011e6  eb010080          ADD      r0,r1,r0,LSL #2
;;;1357       
;;;1358   /*			plazma_can_pal[plazma_can_pal_index]=(char)(LPC_CAN2->RDA);
;;;1359   			plazma_can_pal_index++;
;;;1360   			plazma_can_pal[plazma_can_pal_index]=(char)((LPC_CAN2->RDA)>>8);
;;;1361   			plazma_can_pal_index++;
;;;1362   			plazma_can_pal[plazma_can_pal_index]=(char)((LPC_CAN2->RDA)>>16);
;;;1363   			plazma_can_pal_index++;
;;;1364   			plazma_can_pal[plazma_can_pal_index]=(char)((LPC_CAN2->RDA)>>24);
;;;1365   			plazma_can_pal_index++;
;;;1366   			plazma_can_pal[plazma_can_pal_index]=(char)(LPC_CAN2->RDB);
;;;1367   			plazma_can_pal_index++;
;;;1368   			plazma_can_pal[plazma_can_pal_index]=(char)((LPC_CAN2->RDB)>>8);
;;;1369   			plazma_can_pal_index++;
;;;1370   			plazma_can_pal[plazma_can_pal_index]=(char)((LPC_CAN2->RDB)>>16);
;;;1371   			plazma_can_pal_index++;
;;;1372   			plazma_can_pal[plazma_can_pal_index]=(char)((LPC_CAN2->RDB)>>24);
;;;1373   			plazma_can_pal_index++; */
;;;1374   
;;;1375       		// calculate contents for first entry into FullCAN list
;;;1376       		buf = LPC_CAN2->RFS & 0xC00F0000L; // mask FF, RTR and DLC
0011ea  6a21              LDR      r1,[r4,#0x20]
0011ec  4ac1              LDR      r2,|L1.5364|
0011ee  4011              ANDS     r1,r1,r2
;;;1377       		buf |= 0x01002000L; // set semaphore to 01b and CAN port to 1
0011f0  4ac1              LDR      r2,|L1.5368|
0011f2  4311              ORRS     r1,r1,r2
;;;1378       		buf |= LPC_CAN2->RID & 0x000007FFL; // get CAN message ID
0011f4  6a62              LDR      r2,[r4,#0x24]
0011f6  f3c2020a          UBFX     r2,r2,#0,#11
0011fa  430a              ORRS     r2,r2,r1
;;;1379   
;;;1380       		// now copy entire message to FullCAN list
;;;1381       		*pDest = buf; 
;;;1382       		pDest++; // set to gFullCANList[(C1RFS & 0x000003FFL)].DatA
;;;1383       		*pDest = LPC_CAN2->RDA;
0011fc  6aa1              LDR      r1,[r4,#0x28]
;;;1384   			//plazma_can4=(char)LPC_CAN2->RDA; 
;;;1385       		pDest++; // set to gFullCANList[(C1RFS & 0x000003FFL)].DatB
;;;1386       		*pDest = LPC_CAN2->RDB; 
0011fe  6041              STR      r1,[r0,#4]
001200  6ae1              LDR      r1,[r4,#0x2c]
;;;1387   
;;;1388       		// now set the sempahore to complete
;;;1389       		buf |= 0x03000000L; // set semaphore to 11b
001202  6081              STR      r1,[r0,#8]
001204  f0427140          ORR      r1,r2,#0x3000000
;;;1390       		pDest -= 2; // set to gFullCANList[(C1RFS & 0x000003FFL)].Dat1
;;;1391       		*pDest = buf; 
;;;1392       
;;;1393   		//temp=(char)gFullCANList[0].DatA;
;;;1394   		temp=(char)(LPC_CAN2->RDA);
001208  6001              STR      r1,[r0,#0]
00120a  6aa0              LDR      r0,[r4,#0x28]
;;;1395   		if(temp==0x30)
;;;1396   			{
;;;1397   			 bR=0;
00120c  49bb              LDR      r1,|L1.5372|
00120e  b2c0              UXTB     r0,r0                 ;1394
001210  2830              CMP      r0,#0x30              ;1395
001212  d021              BEQ      |L1.4696|
;;;1398   			 }
;;;1399   		else bR++;
001214  7988              LDRB     r0,[r1,#6]  ; bR
001216  1c40              ADDS     r0,r0,#1
                  |L1.4632|
001218  7188              STRB     r0,[r1,#6]
;;;1400   	
;;;1401   		//temp=(char)(((gFullCANList[0].Dat1)>>16)&0x0f); 
;;;1402        
;;;1403        	//ptr=(char*)(&gFullCANList[0].DatA);
;;;1404   	
;;;1405   
;;;1406   			RXBUFF[0]=(char)(LPC_CAN2->RDA);
00121a  6aa2              LDR      r2,[r4,#0x28]
00121c  48b2              LDR      r0,|L1.5352|
00121e  3024              ADDS     r0,r0,#0x24
001220  7002              STRB     r2,[r0,#0]
;;;1407   			RXBUFF[1]=(char)((LPC_CAN2->RDA)>>8);
001222  6aa2              LDR      r2,[r4,#0x28]
001224  0a12              LSRS     r2,r2,#8
001226  7042              STRB     r2,[r0,#1]
;;;1408   			RXBUFF[2]=(char)((LPC_CAN2->RDA)>>16);
001228  6aa2              LDR      r2,[r4,#0x28]
00122a  0c12              LSRS     r2,r2,#16
00122c  7082              STRB     r2,[r0,#2]
;;;1409   			RXBUFF[3]=(char)((LPC_CAN2->RDA)>>24);
00122e  6aa2              LDR      r2,[r4,#0x28]
001230  0e12              LSRS     r2,r2,#24
001232  70c2              STRB     r2,[r0,#3]
;;;1410   			RXBUFF[4]=(char)(LPC_CAN2->RDB);
001234  6ae2              LDR      r2,[r4,#0x2c]
001236  7102              STRB     r2,[r0,#4]
;;;1411   			RXBUFF[5]=(char)((LPC_CAN2->RDB)>>8);
001238  6ae2              LDR      r2,[r4,#0x2c]
00123a  0a12              LSRS     r2,r2,#8
00123c  7142              STRB     r2,[r0,#5]
;;;1412   			RXBUFF[6]=(char)((LPC_CAN2->RDB)>>16);
00123e  6ae2              LDR      r2,[r4,#0x2c]
001240  0c12              LSRS     r2,r2,#16
001242  7182              STRB     r2,[r0,#6]
;;;1413   			RXBUFF[7]=(char)((LPC_CAN2->RDB)>>24);
001244  6ae2              LDR      r2,[r4,#0x2c]
001246  0e12              LSRS     r2,r2,#24
001248  71c2              STRB     r2,[r0,#7]
;;;1414   	
;;;1415   	
;;;1416   	
;;;1417   			bIN=1;
00124a  2001              MOVS     r0,#1
00124c  71c8              STRB     r0,[r1,#7]
;;;1418     			//rotor_can[3]++;
;;;1419     			can_in_an2();
00124e  f7fffffe          BL       can_in_an2
                  |L1.4690|
;;;1420   			
;;;1421       
;;;1422     		}
;;;1423   
;;;1424   LPC_CAN2->CMR = 0x04; // release receive buffer
001252  2004              MOVS     r0,#4
001254  6060              STR      r0,[r4,#4]
;;;1425   }
001256  bd10              POP      {r4,pc}
                  |L1.4696|
001258  2000              MOVS     r0,#0                 ;1397
00125a  e7dd              B        |L1.4632|
;;;1426   /**************************************************************************
                          ENDP

                  can_isr_tx1 PROC
;;;1432   
;;;1433   void can_isr_tx1 (void) 
00125c  4aa7              LDR      r2,|L1.5372|
;;;1434   {
;;;1435   //unsigned int buf;
;;;1436   //unsigned int *pDest;
;;;1437   char temp;
;;;1438   //char *ptr,j;
;;;1439   //plazma_can2++;
;;;1440   
;;;1441   can_tx_cnt++;
00125e  7a50              LDRB     r0,[r2,#9]  ; can_tx_cnt
001260  1c40              ADDS     r0,r0,#1
001262  7250              STRB     r0,[r2,#9]
;;;1442   
;;;1443   rotor_can[5]++;
001264  48a0              LDR      r0,|L1.5352|
001266  8941              LDRH     r1,[r0,#0xa]  ; rotor_can
001268  1c49              ADDS     r1,r1,#1
00126a  8141              STRH     r1,[r0,#0xa]
;;;1444   
;;;1445   if(ptr_can1_tx_wr!=ptr_can1_tx_rd)
00126c  7893              LDRB     r3,[r2,#2]  ; ptr_can1_tx_wr
00126e  78d0              LDRB     r0,[r2,#3]  ; ptr_can1_tx_rd
;;;1446   	{
;;;1447   	LPC_CAN1->TFI1=can1_info[ptr_can1_tx_rd];
001270  499e              LDR      r1,|L1.5356|
001272  4283              CMP      r3,r0                 ;1445
001274  d01c              BEQ      |L1.4784|
001276  4ba3              LDR      r3,|L1.5380|
001278  f8533020          LDR      r3,[r3,r0,LSL #2]
00127c  630b              STR      r3,[r1,#0x30]
;;;1448        LPC_CAN1->TID1=can1_id[ptr_can1_tx_rd];
00127e  4ba1              LDR      r3,|L1.5380|
001280  3320              ADDS     r3,r3,#0x20
001282  f8533020          LDR      r3,[r3,r0,LSL #2]
001286  634b              STR      r3,[r1,#0x34]
;;;1449        LPC_CAN1->TDA1=can1_data[ptr_can1_tx_rd];
001288  4b9e              LDR      r3,|L1.5380|
00128a  3340              ADDS     r3,r3,#0x40
00128c  f8533020          LDR      r3,[r3,r0,LSL #2]
001290  638b              STR      r3,[r1,#0x38]
;;;1450        LPC_CAN1->TDB1=can1_datb[ptr_can1_tx_rd];
001292  4b9c              LDR      r3,|L1.5380|
001294  3360              ADDS     r3,r3,#0x60
001296  f8533020          LDR      r3,[r3,r0,LSL #2]
00129a  63cb              STR      r3,[r1,#0x3c]
;;;1451        LPC_CAN1->CMR=0x00000021;
00129c  2321              MOVS     r3,#0x21
00129e  604b              STR      r3,[r1,#4]
;;;1452        ptr_can1_tx_rd++;
0012a0  1c40              ADDS     r0,r0,#1
0012a2  b2c0              UXTB     r0,r0
0012a4  70d0              STRB     r0,[r2,#3]
;;;1453        if(ptr_can1_tx_rd>=8)ptr_can1_tx_rd=0;
0012a6  2808              CMP      r0,#8
0012a8  d304              BCC      |L1.4788|
0012aa  2000              MOVS     r0,#0
0012ac  70d0              STRB     r0,[r2,#3]
0012ae  e001              B        |L1.4788|
                  |L1.4784|
;;;1454   	}
;;;1455   else bOUT_FREE=1;
0012b0  2001              MOVS     r0,#1
0012b2  7010              STRB     r0,[r2,#0]
                  |L1.4788|
;;;1456   temp=LPC_CAN1->ICR;
0012b4  68c8              LDR      r0,[r1,#0xc]
;;;1457   if(temp)temp=0;
;;;1458   }
0012b6  4770              BX       lr
;;;1459   
                          ENDP

                  can_isr_tx2 PROC
;;;1460   /***************************************************************************/
;;;1461   void can_isr_tx2 (void) 
0012b8  4a90              LDR      r2,|L1.5372|
;;;1462   {
;;;1463   char temp;
;;;1464   can2_tx_cnt++;
;;;1465   
;;;1466   //=ptr_can2_tx_wr;
;;;1467   
;;;1468   if(ptr_can2_tx_wr!=ptr_can2_tx_rd)
;;;1469   	{
;;;1470   	LPC_CAN2->TFI1=can2_info[ptr_can2_tx_rd];
0012ba  4991              LDR      r1,|L1.5376|
0012bc  8ad0              LDRH     r0,[r2,#0x16]         ;1464  ; can2_tx_cnt
0012be  1c40              ADDS     r0,r0,#1              ;1464
0012c0  82d0              STRH     r0,[r2,#0x16]         ;1464
0012c2  7913              LDRB     r3,[r2,#4]            ;1468  ; ptr_can2_tx_wr
0012c4  7950              LDRB     r0,[r2,#5]            ;1468  ; ptr_can2_tx_rd
0012c6  4283              CMP      r3,r0                 ;1468
0012c8  d01d              BEQ      |L1.4870|
0012ca  4b87              LDR      r3,|L1.5352|
0012cc  3b80              SUBS     r3,r3,#0x80
0012ce  f8533020          LDR      r3,[r3,r0,LSL #2]
0012d2  630b              STR      r3,[r1,#0x30]
;;;1471        LPC_CAN2->TID1=can2_id[ptr_can2_tx_rd];
0012d4  4b84              LDR      r3,|L1.5352|
0012d6  3b60              SUBS     r3,r3,#0x60
0012d8  f8533020          LDR      r3,[r3,r0,LSL #2]
0012dc  634b              STR      r3,[r1,#0x34]
;;;1472        LPC_CAN2->TDA1=can2_data[ptr_can2_tx_rd];
0012de  4b82              LDR      r3,|L1.5352|
0012e0  3b40              SUBS     r3,r3,#0x40
0012e2  f8533020          LDR      r3,[r3,r0,LSL #2]
0012e6  638b              STR      r3,[r1,#0x38]
;;;1473        LPC_CAN2->TDB1=can2_datb[ptr_can2_tx_rd];
0012e8  4b7f              LDR      r3,|L1.5352|
0012ea  3b20              SUBS     r3,r3,#0x20
0012ec  f8533020          LDR      r3,[r3,r0,LSL #2]
0012f0  63cb              STR      r3,[r1,#0x3c]
;;;1474        LPC_CAN2->CMR=0x00000021;
0012f2  2321              MOVS     r3,#0x21
0012f4  604b              STR      r3,[r1,#4]
;;;1475        ptr_can2_tx_rd++;
0012f6  1c40              ADDS     r0,r0,#1
0012f8  b2c0              UXTB     r0,r0
0012fa  7150              STRB     r0,[r2,#5]
;;;1476        if(ptr_can2_tx_rd>=8)ptr_can2_tx_rd=0;
0012fc  2808              CMP      r0,#8
0012fe  d304              BCC      |L1.4874|
001300  2000              MOVS     r0,#0
001302  7150              STRB     r0,[r2,#5]
001304  e001              B        |L1.4874|
                  |L1.4870|
;;;1477   	}
;;;1478   else bOUT_FREE2=1;
001306  2001              MOVS     r0,#1
001308  7050              STRB     r0,[r2,#1]
                  |L1.4874|
;;;1479   temp=LPC_CAN2->ICR;
00130a  68c8              LDR      r0,[r1,#0xc]
;;;1480   if(temp)temp=0;
;;;1481   }
00130c  4770              BX       lr
;;;1482   
                          ENDP

                  can1_init PROC
;;;1486   ***************************************************************************/ 
;;;1487   short can1_init (unsigned int can_btr)
00130e  497e              LDR      r1,|L1.5384|
;;;1488   {
001310  b510              PUSH     {r4,lr}
;;;1489   LPC_SC->PCONP |= (1<<13);  /* Enable CAN1 and CAN2 clock */
001312  680a              LDR      r2,[r1,#0]
001314  f4425200          ORR      r2,r2,#0x2000
001318  600a              STR      r2,[r1,#0]
;;;1490   
;;;1491   LPC_PINCON->PINSEL0 &= ~0x0000000F;  /* CAN1 is p0.0 and p0.1	*/
00131a  497c              LDR      r1,|L1.5388|
00131c  680a              LDR      r2,[r1,#0]
00131e  f022020f          BIC      r2,r2,#0xf
001322  600a              STR      r2,[r1,#0]
;;;1492   LPC_PINCON->PINSEL0 |= 0x00000005;
001324  680a              LDR      r2,[r1,#0]
001326  f0420205          ORR      r2,r2,#5
00132a  600a              STR      r2,[r1,#0]
;;;1493   
;;;1494   gCANFilter = 0; // Reset and disable all message filters
00132c  4a73              LDR      r2,|L1.5372|
00132e  f04f0100          MOV      r1,#0
001332  8251              STRH     r1,[r2,#0x12]
;;;1495   
;;;1496   LPC_CANAF->AFMR = 0x00000001L; // Acceptance Filter Mode Register = off !
001334  4b76              LDR      r3,|L1.5392|
001336  f04f0201          MOV      r2,#1
00133a  601a              STR      r2,[r3,#0]
;;;1497   
;;;1498   LPC_CAN1->MOD = 1; // Go into Reset mode
00133c  4c6b              LDR      r4,|L1.5356|
00133e  6022              STR      r2,[r4,#0]
;;;1499   
;;;1500   LPC_CAN1->IER = 0;// Disable All Interrupts
001340  6121              STR      r1,[r4,#0x10]
;;;1501   
;;;1502   LPC_CAN1->GSR = 0; // Clear Status register
001342  60a1              STR      r1,[r4,#8]
;;;1503   
;;;1504   LPC_CAN1->BTR = can_btr; // Set bit timing
001344  6160              STR      r0,[r4,#0x14]
;;;1505   
;;;1506   //LPC_CAN1->IER |=(1<<0)|(1<<1)|(1<<9)|(1<<10); // Enable Receive & Transmit Interrupt
;;;1507   
;;;1508   LPC_CAN1->MOD = 0; // Enter Normal Operating Mode
001346  6021              STR      r1,[r4,#0]
;;;1509   
;;;1510   LPC_CAN1->EWL = 110; // Enter Normal Operating Mode
001348  f04f006e          MOV      r0,#0x6e
00134c  61a0              STR      r0,[r4,#0x18]
;;;1511   
;;;1512   NVIC_EnableIRQ(CAN_IRQn);
00134e  f04f0019          MOV      r0,#0x19
001352  f7fffffe          BL       NVIC_EnableIRQ
;;;1513   LPC_CAN1->IER =0x0007;
001356  2007              MOVS     r0,#7
001358  6120              STR      r0,[r4,#0x10]
;;;1514   return 1;
00135a  2001              MOVS     r0,#1
;;;1515   }
00135c  bd10              POP      {r4,pc}
;;;1516   
                          ENDP

                  can2_init PROC
;;;1520   ***************************************************************************/ 
;;;1521   short can2_init (unsigned int can_btr)
00135e  496a              LDR      r1,|L1.5384|
;;;1522   {
001360  b510              PUSH     {r4,lr}
;;;1523   LPC_SC->PCONP |= (1<<14);  /* Enable CAN1 and CAN2 clock */
001362  680a              LDR      r2,[r1,#0]
001364  f4424280          ORR      r2,r2,#0x4000
001368  600a              STR      r2,[r1,#0]
;;;1524   
;;;1525   LPC_PINCON->PINSEL2 &= ~0x0003c000;  /* CAN1 is p0.0 and p0.1	*/
00136a  4968              LDR      r1,|L1.5388|
00136c  688a              LDR      r2,[r1,#8]
00136e  f4223270          BIC      r2,r2,#0x3c000
001372  608a              STR      r2,[r1,#8]
;;;1526   LPC_PINCON->PINSEL4 |= 0x00014000;
001374  690a              LDR      r2,[r1,#0x10]
001376  f44232a0          ORR      r2,r2,#0x14000
00137a  610a              STR      r2,[r1,#0x10]
;;;1527   
;;;1528   gCANFilter = 0; // Reset and disable all message filters
00137c  4a5f              LDR      r2,|L1.5372|
00137e  f04f0100          MOV      r1,#0
001382  8251              STRH     r1,[r2,#0x12]
;;;1529   
;;;1530   LPC_CANAF->AFMR = 0x00000001L; // Acceptance Filter Mode Register = off !
001384  4b62              LDR      r3,|L1.5392|
001386  f04f0201          MOV      r2,#1
00138a  601a              STR      r2,[r3,#0]
;;;1531   
;;;1532   LPC_CAN2->MOD = 1; // Go into Reset mode
00138c  4c5c              LDR      r4,|L1.5376|
00138e  6022              STR      r2,[r4,#0]
;;;1533   
;;;1534   LPC_CAN2->IER = 0;// Disable All Interrupts
001390  6121              STR      r1,[r4,#0x10]
;;;1535   
;;;1536   LPC_CAN2->GSR = 0; // Clear Status register
001392  60a1              STR      r1,[r4,#8]
;;;1537   
;;;1538   LPC_CAN2->BTR = can_btr; // Set bit timing
001394  6160              STR      r0,[r4,#0x14]
;;;1539   
;;;1540   //LPC_CAN1->IER |=(1<<0)|(1<<1)|(1<<9)|(1<<10); // Enable Receive & Transmit Interrupt
;;;1541   
;;;1542   LPC_CAN2->MOD = 0; // Enter Normal Operating Mode
001396  6021              STR      r1,[r4,#0]
;;;1543   
;;;1544   
;;;1545   
;;;1546   NVIC_EnableIRQ(CAN_IRQn);
001398  f04f0019          MOV      r0,#0x19
00139c  f7fffffe          BL       NVIC_EnableIRQ
;;;1547   LPC_CAN2->IER =0x0003;
0013a0  2003              MOVS     r0,#3
0013a2  6120              STR      r0,[r4,#0x10]
;;;1548   return 1;
0013a4  2001              MOVS     r0,#1
;;;1549   }
0013a6  bd10              POP      {r4,pc}
;;;1550   
                          ENDP

                  FullCAN_SetFilter PROC
;;;1554   ***************************************************************************/ 
;;;1555   short FullCAN_SetFilter  (
0013a8  b5f0              PUSH     {r4-r7,lr}
;;;1556                            unsigned short can_port, // CAN interface number
;;;1557                            unsigned int CANID // 11-bit CAN ID
;;;1558                            )
;;;1559   {
;;;1560   unsigned int p, n;
;;;1561   unsigned int buf0, buf1;
;;;1562   unsigned int ID_lower, ID_upper;
;;;1563   unsigned int candata;
;;;1564   unsigned int *pAddr;
;;;1565   
;;;1566    
;;;1567   
;;;1568   // Acceptance Filter Mode Register = off !
;;;1569   LPC_CANAF->AFMR = 0x00000001L;
0013aa  4c59              LDR      r4,|L1.5392|
0013ac  2201              MOVS     r2,#1
0013ae  6022              STR      r2,[r4,#0]
;;;1570   
;;;1571   if (gCANFilter == 0)
0013b0  4b52              LDR      r3,|L1.5372|
0013b2  8a5d              LDRH     r5,[r3,#0x12]  ; gCANFilter
;;;1572        {    
;;;1573        // First call, init entry zero
;;;1574        gFullCANList[0].Dat1 = 0x000037FFL; // CAN 1, disabled and unused
0013b4  4a4c              LDR      r2,|L1.5352|
0013b6  320c              ADDS     r2,r2,#0xc
0013b8  b915              CBNZ     r5,|L1.5056|
0013ba  f24375ff          MOV      r5,#0x37ff
0013be  6015              STR      r5,[r2,#0]  ; gFullCANList
                  |L1.5056|
;;;1575        }
;;;1576   if (gCANFilter >= MAX_FILTERS)
0013c0  f9b35012          LDRSH    r5,[r3,#0x12]  ; gCANFilter
0013c4  2d02              CMP      r5,#2
0013c6  db01              BLT      |L1.5068|
;;;1577        {
;;;1578        return 0;
0013c8  2000              MOVS     r0,#0
;;;1579        }
;;;1580   
;;;1581   CANID &= 0x000007FFL; // Mask out 11-bit ID
;;;1582   CANID |= (can_port << 13); // Put can_port info in bits 13-15
;;;1583   
;;;1584   // Filters must be sorted by interface, then by priority
;;;1585   // new filter is sorted into array
;;;1586   p = 0;
;;;1587   while (p < gCANFilter) // loop through all existing filters 
;;;1588        {
;;;1589        if ((gFullCANList[p].Dat1 & 0x0000FFFFL) > CANID)
;;;1590             {
;;;1591             break;
;;;1592             }
;;;1593        p++;
;;;1594        }
;;;1595   
;;;1596   // insert new filter here
;;;1597   buf0 = gFullCANList[p].Dat1; // save current entry
;;;1598   gFullCANList[p].Dat1 = CANID; // insert the new entry
;;;1599   
;;;1600   // move all remaining entries one row up
;;;1601   gCANFilter++;
;;;1602   while (p < gCANFilter)
;;;1603        {
;;;1604        p++;
;;;1605        buf1 = gFullCANList[p].Dat1;
;;;1606        gFullCANList[p].Dat1 = buf0;
;;;1607        buf0 = buf1;
;;;1608        }
;;;1609   
;;;1610   // Now work on Acceptance Filter Configuration     
;;;1611   // Set CAN filter for 11-bit standard identifiers
;;;1612   p = 0;
;;;1613   
;;;1614   // Set pointer for Standard Frame Individual
;;;1615   // Standard Frame Explicit
;;;1616   LPC_CANAF->SFF_sa = p;
;;;1617   
;;;1618   pAddr = (unsigned int *) LPC_CANAF_RAM_BASE;
;;;1619   for (n = 0; n < ((gCANFilter+1)/2); n++)
;;;1620        {
;;;1621        ID_lower = gFullCANList[n * 2].Dat1 & 0x0000FFFFL;
;;;1622        ID_upper = gFullCANList[n * 2 + 1].Dat1 & 0x0000FFFFL;
;;;1623        candata = (ID_lower << 16) + ID_upper;
;;;1624        *pAddr = candata;
;;;1625        p += 4;
;;;1626        pAddr++;
;;;1627        }
;;;1628   
;;;1629   // p is still pointing to ENDofTable;
;;;1630     
;;;1631   // Set pointer for Standard Frame Groups
;;;1632   // Standard Frame Group Start Address Register
;;;1633   LPC_CANAF->SFF_GRP_sa = p;
;;;1634   
;;;1635   // Set pointer for Extended Frame Individual
;;;1636   // Extended Frame Start Address Register
;;;1637   LPC_CANAF->EFF_sa = p;
;;;1638   
;;;1639   // Set pointer for Extended Frame Groups
;;;1640   // Extended Frame Group Start Address Register
;;;1641   LPC_CANAF->EFF_GRP_sa = p;
;;;1642   
;;;1643   // Set ENDofTable 
;;;1644   // End of AF Tables Register
;;;1645   LPC_CANAF->ENDofTable = p;
;;;1646   
;;;1647   // Acceptance Filter Mode Register, start using filter
;;;1648   LPC_CANAF->AFMR = 0;
;;;1649     
;;;1650   return 1;
;;;1651   
;;;1652   /*
;;;1653     // Acceptance Filter Mode Register = off !
;;;1654   LPC_CANAF->AFMR = 0x00000001L;
;;;1655   
;;;1656     if (gCANFilter == 0)
;;;1657     { // First call, init entry zero
;;;1658       gFullCANList[0].Dat1 = 0x000037FFL; // CAN 1, disabled and unused
;;;1659     }
;;;1660     if (gCANFilter >= MAX_FILTERS)
;;;1661     {
;;;1662       return 0;
;;;1663     }
;;;1664   
;;;1665     CANID &= 0x000007FFL; // Mask out 11-bit ID
;;;1666     CANID |= (can_port << 13); // Put can_port info in bits 13-15
;;;1667   
;;;1668     // Filters must be sorted by interface, then by priority
;;;1669     // new filter is sorted into array
;;;1670     p = 0;
;;;1671     while (p < gCANFilter) // loop through all existing filters 
;;;1672     {
;;;1673       if ((gFullCANList[p].Dat1 & 0x0000FFFFL) > CANID)
;;;1674       {
;;;1675         break;
;;;1676       }
;;;1677       p++;
;;;1678     }
;;;1679   
;;;1680     // insert new filter here
;;;1681     buf0 = gFullCANList[p].Dat1; // save current entry
;;;1682     gFullCANList[p].Dat1 = CANID; // insert the new entry
;;;1683   
;;;1684     // move all remaining entries one row up
;;;1685     gCANFilter++;
;;;1686     while (p < gCANFilter)
;;;1687     {
;;;1688       p++;
;;;1689       buf1 = gFullCANList[p].Dat1;
;;;1690       gFullCANList[p].Dat1 = buf0;
;;;1691       buf0 = buf1;
;;;1692     }
;;;1693   
;;;1694     // Now work on Acceptance Filter Configuration     
;;;1695     // Set CAN filter for 11-bit standard identifiers
;;;1696     p = 0;
;;;1697   
;;;1698     // Set pointer for Standard Frame Individual
;;;1699     // Standard Frame Explicit
;;;1700   LPC_CANAF->SFF_sa = p;
;;;1701   
;;;1702     pAddr = (unsigned int *) ACCEPTANCE_FILTER_RAM_BASE;
;;;1703     for (n = 0; n < ((gCANFilter+1)/2); n++)
;;;1704     {
;;;1705       ID_lower = gFullCANList[n * 2].Dat1 & 0x0000FFFFL;
;;;1706       ID_upper = gFullCANList[n * 2 + 1].Dat1 & 0x0000FFFFL;
;;;1707       candata = (ID_lower << 16) + ID_upper;
;;;1708       *pAddr = candata;
;;;1709       p += 4;
;;;1710       pAddr++;
;;;1711     }
;;;1712   
;;;1713     // p is still pointing to ENDofTable;
;;;1714     
;;;1715     // Set pointer for Standard Frame Groups
;;;1716     // Standard Frame Group Start Address Register
;;;1717   LPC_CANAF->SFF_GRP_sa = p;
;;;1718   
;;;1719     // Set pointer for Extended Frame Individual
;;;1720     // Extended Frame Start Address Register
;;;1721   LPC_CANAF->EFF_sa = p;
;;;1722   
;;;1723     // Set pointer for Extended Frame Groups
;;;1724     // Extended Frame Group Start Address Register
;;;1725   LPC_CANAF->EFF_GRP_sa = p;
;;;1726   
;;;1727     // Set ENDofTable 
;;;1728     // End of AF Tables Register
;;;1729   LPC_CANAF->ENDofTable = p;
;;;1730   
;;;1731     // Acceptance Filter Mode Register, start using filter
;;;1732   LPC_CANAF->AFMR = 0;
;;;1733     
;;;1734     return 1;	 */
;;;1735   }
0013ca  bdf0              POP      {r4-r7,pc}
                  |L1.5068|
0013cc  f3c1010a          UBFX     r1,r1,#0,#11          ;1581
0013d0  ea413540          ORR      r5,r1,r0,LSL #13      ;1582
0013d4  2000              MOVS     r0,#0                 ;1586
0013d6  e007              B        |L1.5096|
                  |L1.5080|
0013d8  eb000140          ADD      r1,r0,r0,LSL #1       ;1589
0013dc  f8521021          LDR      r1,[r2,r1,LSL #2]     ;1589
0013e0  b289              UXTH     r1,r1                 ;1589
0013e2  42a9              CMP      r1,r5                 ;1589
0013e4  d804              BHI      |L1.5104|
0013e6  1c40              ADDS     r0,r0,#1              ;1593
                  |L1.5096|
0013e8  f9b31012          LDRSH    r1,[r3,#0x12]         ;1587  ; gCANFilter
0013ec  4288              CMP      r0,r1                 ;1587
0013ee  d3f3              BCC      |L1.5080|
                  |L1.5104|
0013f0  eb000640          ADD      r6,r0,r0,LSL #1       ;1597
0013f4  f8521026          LDR      r1,[r2,r6,LSL #2]     ;1597
0013f8  f8425026          STR      r5,[r2,r6,LSL #2]     ;1598
0013fc  8a5d              LDRH     r5,[r3,#0x12]         ;1601  ; gCANFilter
0013fe  1c6d              ADDS     r5,r5,#1              ;1601
001400  825d              STRH     r5,[r3,#0x12]         ;1601
001402  e007              B        |L1.5140|
                  |L1.5124|
001404  1c40              ADDS     r0,r0,#1              ;1604
001406  eb000640          ADD      r6,r0,r0,LSL #1       ;1605
00140a  f8525026          LDR      r5,[r2,r6,LSL #2]     ;1605
00140e  f8421026          STR      r1,[r2,r6,LSL #2]     ;1606
001412  4629              MOV      r1,r5                 ;1607
                  |L1.5140|
001414  f9b35012          LDRSH    r5,[r3,#0x12]         ;1602  ; gCANFilter
001418  42a8              CMP      r0,r5                 ;1602
00141a  d3f3              BCC      |L1.5124|
00141c  2000              MOVS     r0,#0                 ;1612
00141e  6060              STR      r0,[r4,#4]            ;1616
001420  4d3c              LDR      r5,|L1.5396|
001422  4601              MOV      r1,r0                 ;1619
001424  e00d              B        |L1.5186|
001426  bf00              NOP                            ;1621
                  |L1.5160|
001428  eb010741          ADD      r7,r1,r1,LSL #1       ;1621
00142c  f8526037          LDR      r6,[r2,r7,LSL #3]     ;1621
001430  eb0207c7          ADD      r7,r2,r7,LSL #3       ;1622
001434  68ff              LDR      r7,[r7,#0xc]          ;1622
001436  1d00              ADDS     r0,r0,#4              ;1625
001438  b2bf              UXTH     r7,r7                 ;1622
00143a  eb074606          ADD      r6,r7,r6,LSL #16      ;1623
00143e  c540              STM      r5!,{r6}              ;1624
001440  1c49              ADDS     r1,r1,#1              ;1619
                  |L1.5186|
001442  f9b36012          LDRSH    r6,[r3,#0x12]         ;1619  ; gCANFilter
001446  1c76              ADDS     r6,r6,#1              ;1619
001448  eb0676d6          ADD      r6,r6,r6,LSR #31      ;1619
00144c  ebb10f66          CMP      r1,r6,ASR #1          ;1619
001450  d3ea              BCC      |L1.5160|
001452  60a0              STR      r0,[r4,#8]            ;1633
001454  60e0              STR      r0,[r4,#0xc]          ;1637
001456  6120              STR      r0,[r4,#0x10]         ;1641
001458  6160              STR      r0,[r4,#0x14]         ;1645
00145a  2000              MOVS     r0,#0                 ;1648
00145c  6020              STR      r0,[r4,#0]            ;1648
00145e  2001              MOVS     r0,#1                 ;1650
001460  bdf0              POP      {r4-r7,pc}
;;;1736   
                          ENDP

                  CAN_IRQHandler PROC
;;;1737   //-----------------------------------------------
;;;1738   void CAN_IRQHandler(void)  
001462  4822              LDR      r0,|L1.5356|
;;;1739   {
001464  b510              PUSH     {r4,lr}
;;;1740   //can_rotor[0]++;
;;;1741   CANStatus = LPC_CAN1->ICR;
001466  68c0              LDR      r0,[r0,#0xc]
001468  4c24              LDR      r4,|L1.5372|
00146a  61a0              STR      r0,[r4,#0x18]  ; CANStatus
;;;1742   //new_rotor[3]=CANStatus;
;;;1743   //new_rotor[4]=CANStatus>>16;
;;;1744   //
;;;1745   //rotor_rotor_rotor[0]++;
;;;1746   		
;;;1747   if ( CANStatus & (1 << 0) )
00146c  69a0              LDR      r0,[r4,#0x18]  ; CANStatus
00146e  07c0              LSLS     r0,r0,#31
001470  d005              BEQ      |L1.5246|
;;;1748        {
;;;1749   	CAN_ISR_Rx1();
001472  f7fffffe          BL       CAN_ISR_Rx1
;;;1750   	plazma_can1++;
001476  7b20              LDRB     r0,[r4,#0xc]  ; plazma_can1
001478  f1000001          ADD      r0,r0,#1
00147c  7320              STRB     r0,[r4,#0xc]
                  |L1.5246|
;;;1751        }
;;;1752   
;;;1753   if ( CANStatus & (1 << 1) )
00147e  69a0              LDR      r0,[r4,#0x18]  ; CANStatus
001480  0780              LSLS     r0,r0,#30
001482  d505              BPL      |L1.5264|
;;;1754        {
;;;1755   	can_isr_tx1();
001484  f7fffffe          BL       can_isr_tx1
;;;1756   	plazma_can2++;
001488  7b60              LDRB     r0,[r4,#0xd]  ; plazma_can2
00148a  f1000001          ADD      r0,r0,#1
00148e  7360              STRB     r0,[r4,#0xd]
                  |L1.5264|
;;;1757   	
;;;1758        }
;;;1759   
;;;1760   if ( CANStatus & (1 << 2) )
001490  69a0              LDR      r0,[r4,#0x18]  ; CANStatus
001492  0740              LSLS     r0,r0,#29
001494  d501              BPL      |L1.5274|
;;;1761        {
;;;1762   	//can_isr_tx1();
;;;1763   	//plazma_can2++;
;;;1764   	bCAN1_INIT=1;
001496  2001              MOVS     r0,#1
001498  7420              STRB     r0,[r4,#0x10]
                  |L1.5274|
;;;1765        }
;;;1766   
;;;1767   CANStatus = LPC_CAN2->ICR;
00149a  4819              LDR      r0,|L1.5376|
00149c  68c0              LDR      r0,[r0,#0xc]
00149e  61a0              STR      r0,[r4,#0x18]  ; CANStatus
;;;1768   //new_rotor[3]=CANStatus;
;;;1769   //new_rotor[4]=CANStatus>>16;
;;;1770   //
;;;1771   //rotor_rotor_rotor[0]++;
;;;1772   plazma_can++;		
0014a0  7ae0              LDRB     r0,[r4,#0xb]  ; plazma_can
0014a2  1c40              ADDS     r0,r0,#1
0014a4  72e0              STRB     r0,[r4,#0xb]
;;;1773   if ( CANStatus & (1 << 0) )
0014a6  69a0              LDR      r0,[r4,#0x18]  ; CANStatus
0014a8  07c0              LSLS     r0,r0,#31
0014aa  d008              BEQ      |L1.5310|
;;;1774        {
;;;1775   	CAN_ISR_Rx2();
0014ac  f7fffffe          BL       CAN_ISR_Rx2
;;;1776   	plazma_can3++;
0014b0  7ba0              LDRB     r0,[r4,#0xe]  ; plazma_can3
0014b2  f1000001          ADD      r0,r0,#1
0014b6  73a0              STRB     r0,[r4,#0xe]
;;;1777   	cnt_can_pal=0;
0014b8  f04f0000          MOV      r0,#0
0014bc  72a0              STRB     r0,[r4,#0xa]
                  |L1.5310|
;;;1778   
;;;1779        }
;;;1780   
;;;1781   if ( CANStatus & (1 << 1) )
0014be  69a0              LDR      r0,[r4,#0x18]  ; CANStatus
0014c0  0780              LSLS     r0,r0,#30
0014c2  d504              BPL      |L1.5326|
;;;1782        {
;;;1783   	can_isr_tx2();
0014c4  f7fffffe          BL       can_isr_tx2
;;;1784   	 plazma_can4++;
0014c8  7be0              LDRB     r0,[r4,#0xf]  ; plazma_can4
0014ca  1c40              ADDS     r0,r0,#1
0014cc  73e0              STRB     r0,[r4,#0xf]
                  |L1.5326|
;;;1785   	
;;;1786        }
;;;1787   
;;;1788   return;
;;;1789   }
0014ce  bd10              POP      {r4,pc}
;;;1790   
                          ENDP

                  NVIC_EnableIRQ PROC
;;;1095    */
;;;1096   static __INLINE void NVIC_EnableIRQ(IRQn_Type IRQn)
0014d0  f000021f          AND      r2,r0,#0x1f
;;;1097   {
;;;1098     NVIC->ISER[((uint32_t)(IRQn) >> 5)] = (1 << ((uint32_t)(IRQn) & 0x1F)); /* enable interrupt */
0014d4  2101              MOVS     r1,#1
0014d6  4091              LSLS     r1,r1,r2
0014d8  0940              LSRS     r0,r0,#5
0014da  f04f22e0          MOV      r2,#0xe000e000
0014de  eb020080          ADD      r0,r2,r0,LSL #2
0014e2  f8c01100          STR      r1,[r0,#0x100]
;;;1099   }
0014e6  4770              BX       lr
;;;1100   
                          ENDP

                  |L1.5352|
                          DCD      ||.bss||+0x100
                  |L1.5356|
                          DCD      0x40044000
                  |L1.5360|
                          DCD      0xc0000400
                  |L1.5364|
                          DCD      0xc00f0000
                  |L1.5368|
                          DCD      0x01002000
                  |L1.5372|
                          DCD      ||.data||
                  |L1.5376|
                          DCD      0x40048000
                  |L1.5380|
                          DCD      ||.bss||
                  |L1.5384|
                          DCD      0x400fc0c4
                  |L1.5388|
                          DCD      0x4002c000
                  |L1.5392|
                          DCD      0x4003c000
                  |L1.5396|
                          DCD      0x40038000

                          AREA ||.bss||, DATA, NOINIT, ALIGN=2

                  can1_info
                          %        32
                  can1_id
                          %        32
                  can1_data
                          %        32
                  can1_datb
                          %        32
                  can2_info
                          %        32
                  can2_id
                          %        32
                  can2_data
                          %        32
                  can2_datb
                          %        32
                  rotor_can
                          %        12
                  gFullCANList
                          %        24
                  RXBUFF
                          %        40
                  TXBUFF
                          %        40
                  can_rotor
                          %        10
                  can_debug_plazma
                          %        20

                          AREA ||area_number.4||, DATA, NOINIT, ALIGN=0

                          EXPORTAS ||area_number.4||, ||.bss||
                  bd_dumm
                          %        25

                          AREA ||area_number.5||, DATA, NOINIT, ALIGN=0

                          EXPORTAS ||area_number.5||, ||.bss||
                  ||bd||
                          %        25

                          AREA ||area_number.6||, DATA, NOINIT, ALIGN=0

                          EXPORTAS ||area_number.6||, ||.bss||
                  RXBUFF2
                          %        40

                          AREA ||area_number.7||, DATA, NOINIT, ALIGN=0

                          EXPORTAS ||area_number.7||, ||.bss||
                  TXBUFF2
                          %        40

                          AREA ||area_number.8||, DATA, NOINIT, ALIGN=0

                          EXPORTAS ||area_number.8||, ||.bss||
                  plazma_can_pal
                          %        20

                          AREA ||.constdata||, DATA, READONLY, ALIGN=0

                  Table87
000000  000e1c12          DCB      0x00,0x0e,0x1c,0x12
000004  3836242a          DCB      0x38,0x36,0x24,0x2a
000008  707e6c62          DCB      0x70,0x7e,0x6c,0x62
00000c  4846545a          DCB      0x48,0x46,0x54,0x5a
000010  e0eefcf2          DCB      0xe0,0xee,0xfc,0xf2
000014  d8d6c4ca          DCB      0xd8,0xd6,0xc4,0xca
000018  909e8c82          DCB      0x90,0x9e,0x8c,0x82
00001c  a8a6b4ba          DCB      0xa8,0xa6,0xb4,0xba
000020  cec0d2dc          DCB      0xce,0xc0,0xd2,0xdc
000024  f6f8eae4          DCB      0xf6,0xf8,0xea,0xe4
000028  beb0a2ac          DCB      0xbe,0xb0,0xa2,0xac
00002c  86889a94          DCB      0x86,0x88,0x9a,0x94
000030  2e20323c          DCB      0x2e,0x20,0x32,0x3c
000034  16180a04          DCB      0x16,0x18,0x0a,0x04
000038  5e50424c          DCB      0x5e,0x50,0x42,0x4c
00003c  66687a74          DCB      0x66,0x68,0x7a,0x74
000040  929c8e80          DCB      0x92,0x9c,0x8e,0x80
000044  aaa4b6b8          DCB      0xaa,0xa4,0xb6,0xb8
000048  e2ecfef0          DCB      0xe2,0xec,0xfe,0xf0
00004c  dad4c6c8          DCB      0xda,0xd4,0xc6,0xc8
000050  727c6e60          DCB      0x72,0x7c,0x6e,0x60
000054  4a445658          DCB      0x4a,0x44,0x56,0x58
000058  020c1e10          DCB      0x02,0x0c,0x1e,0x10
00005c  3a342628          DCB      0x3a,0x34,0x26,0x28
000060  5c52404e          DCB      0x5c,0x52,0x40,0x4e
000064  646a7876          DCB      0x64,0x6a,0x78,0x76
000068  2c22303e          DCB      0x2c,0x22,0x30,0x3e
00006c  141a0806          DCB      0x14,0x1a,0x08,0x06
000070  bcb2a0ae          DCB      0xbc,0xb2,0xa0,0xae
000074  848a9896          DCB      0x84,0x8a,0x98,0x96
000078  ccc2d0de          DCB      0xcc,0xc2,0xd0,0xde
00007c  f4fae8e6          DCB      0xf4,0xfa,0xe8,0xe6
000080  2a243638          DCB      0x2a,0x24,0x36,0x38
000084  121c0e00          DCB      0x12,0x1c,0x0e,0x00
000088  5a544648          DCB      0x5a,0x54,0x46,0x48
00008c  626c7e70          DCB      0x62,0x6c,0x7e,0x70
000090  cac4d6d8          DCB      0xca,0xc4,0xd6,0xd8
000094  f2fceee0          DCB      0xf2,0xfc,0xee,0xe0
000098  bab4a6a8          DCB      0xba,0xb4,0xa6,0xa8
00009c  828c9e90          DCB      0x82,0x8c,0x9e,0x90
0000a0  e4eaf8f6          DCB      0xe4,0xea,0xf8,0xf6
0000a4  dcd2c0ce          DCB      0xdc,0xd2,0xc0,0xce
0000a8  949a8886          DCB      0x94,0x9a,0x88,0x86
0000ac  aca2b0be          DCB      0xac,0xa2,0xb0,0xbe
0000b0  040a1816          DCB      0x04,0x0a,0x18,0x16
0000b4  3c32202e          DCB      0x3c,0x32,0x20,0x2e
0000b8  747a6866          DCB      0x74,0x7a,0x68,0x66
0000bc  4c42505e          DCB      0x4c,0x42,0x50,0x5e
0000c0  b8b6a4aa          DCB      0xb8,0xb6,0xa4,0xaa
0000c4  808e9c92          DCB      0x80,0x8e,0x9c,0x92
0000c8  c8c6d4da          DCB      0xc8,0xc6,0xd4,0xda
0000cc  f0feece2          DCB      0xf0,0xfe,0xec,0xe2
0000d0  5856444a          DCB      0x58,0x56,0x44,0x4a
0000d4  606e7c72          DCB      0x60,0x6e,0x7c,0x72
0000d8  2826343a          DCB      0x28,0x26,0x34,0x3a
0000dc  101e0c02          DCB      0x10,0x1e,0x0c,0x02
0000e0  76786a64          DCB      0x76,0x78,0x6a,0x64
0000e4  4e40525c          DCB      0x4e,0x40,0x52,0x5c
0000e8  06081a14          DCB      0x06,0x08,0x1a,0x14
0000ec  3e30222c          DCB      0x3e,0x30,0x22,0x2c
0000f0  96988a84          DCB      0x96,0x98,0x8a,0x84
0000f4  aea0b2bc          DCB      0xae,0xa0,0xb2,0xbc
0000f8  e6e8faf4          DCB      0xe6,0xe8,0xfa,0xf4
0000fc  ded0c2cc          DCB      0xde,0xd0,0xc2,0xcc
                  Table95
000100  002a547e          DCB      0x00,0x2a,0x54,0x7e
000104  a882fcd6          DCB      0xa8,0x82,0xfc,0xd6
000108  7a502e04          DCB      0x7a,0x50,0x2e,0x04
00010c  d2f886ac          DCB      0xd2,0xf8,0x86,0xac
000110  f4dea08a          DCB      0xf4,0xde,0xa0,0x8a
000114  5c760822          DCB      0x5c,0x76,0x08,0x22
000118  8ea4daf0          DCB      0x8e,0xa4,0xda,0xf0
00011c  260c7258          DCB      0x26,0x0c,0x72,0x58
000120  c2e896bc          DCB      0xc2,0xe8,0x96,0xbc
000124  6a403e14          DCB      0x6a,0x40,0x3e,0x14
000128  b892ecc6          DCB      0xb8,0x92,0xec,0xc6
00012c  103a446e          DCB      0x10,0x3a,0x44,0x6e
000130  361c6248          DCB      0x36,0x1c,0x62,0x48
000134  9eb4cae0          DCB      0x9e,0xb4,0xca,0xe0
000138  4c661832          DCB      0x4c,0x66,0x18,0x32
00013c  e4ceb09a          DCB      0xe4,0xce,0xb0,0x9a
000140  ae84fad0          DCB      0xae,0x84,0xfa,0xd0
000144  062c5278          DCB      0x06,0x2c,0x52,0x78
000148  d4fe80aa          DCB      0xd4,0xfe,0x80,0xaa
00014c  7c562802          DCB      0x7c,0x56,0x28,0x02
000150  5a700e24          DCB      0x5a,0x70,0x0e,0x24
000154  f2d8a68c          DCB      0xf2,0xd8,0xa6,0x8c
000158  200a745e          DCB      0x20,0x0a,0x74,0x5e
00015c  88a2dcf6          DCB      0x88,0xa2,0xdc,0xf6
000160  6c463812          DCB      0x6c,0x46,0x38,0x12
000164  c4ee90ba          DCB      0xc4,0xee,0x90,0xba
000168  163c4268          DCB      0x16,0x3c,0x42,0x68
00016c  be94eac0          DCB      0xbe,0x94,0xea,0xc0
000170  98b2cce6          DCB      0x98,0xb2,0xcc,0xe6
000174  301a644e          DCB      0x30,0x1a,0x64,0x4e
000178  e2c8b69c          DCB      0xe2,0xc8,0xb6,0x9c
00017c  4a601e34          DCB      0x4a,0x60,0x1e,0x34
000180  765c2208          DCB      0x76,0x5c,0x22,0x08
000184  def48aa0          DCB      0xde,0xf4,0x8a,0xa0
000188  0c265872          DCB      0x0c,0x26,0x58,0x72
00018c  a48ef0da          DCB      0xa4,0x8e,0xf0,0xda
000190  82a8d6fc          DCB      0x82,0xa8,0xd6,0xfc
000194  2a007e54          DCB      0x2a,0x00,0x7e,0x54
000198  f8d2ac86          DCB      0xf8,0xd2,0xac,0x86
00019c  507a042e          DCB      0x50,0x7a,0x04,0x2e
0001a0  b49ee0ca          DCB      0xb4,0x9e,0xe0,0xca
0001a4  1c364862          DCB      0x1c,0x36,0x48,0x62
0001a8  cee49ab0          DCB      0xce,0xe4,0x9a,0xb0
0001ac  664c3218          DCB      0x66,0x4c,0x32,0x18
0001b0  406a143e          DCB      0x40,0x6a,0x14,0x3e
0001b4  e8c2bc96          DCB      0xe8,0xc2,0xbc,0x96
0001b8  3a106e44          DCB      0x3a,0x10,0x6e,0x44
0001bc  92b8c6ec          DCB      0x92,0xb8,0xc6,0xec
0001c0  d8f28ca6          DCB      0xd8,0xf2,0x8c,0xa6
0001c4  705a240e          DCB      0x70,0x5a,0x24,0x0e
0001c8  a288f6dc          DCB      0xa2,0x88,0xf6,0xdc
0001cc  0a205e74          DCB      0x0a,0x20,0x5e,0x74
0001d0  2c067852          DCB      0x2c,0x06,0x78,0x52
0001d4  84aed0fa          DCB      0x84,0xae,0xd0,0xfa
0001d8  567c0228          DCB      0x56,0x7c,0x02,0x28
0001dc  fed4aa80          DCB      0xfe,0xd4,0xaa,0x80
0001e0  1a304e64          DCB      0x1a,0x30,0x4e,0x64
0001e4  b298e6cc          DCB      0xb2,0x98,0xe6,0xcc
0001e8  604a341e          DCB      0x60,0x4a,0x34,0x1e
0001ec  c8e29cb6          DCB      0xc8,0xe2,0x9c,0xb6
0001f0  eec4ba90          DCB      0xee,0xc4,0xba,0x90
0001f4  466c1238          DCB      0x46,0x6c,0x12,0x38
0001f8  94bec0ea          DCB      0x94,0xbe,0xc0,0xea
0001fc  3c166842          DCB      0x3c,0x16,0x68,0x42

                          AREA ||.data||, DATA, ALIGN=2

                  bOUT_FREE
000000  01                DCB      0x01
                  bOUT_FREE2
000001  01                DCB      0x01
                  ptr_can1_tx_wr
000002  00                DCB      0x00
                  ptr_can1_tx_rd
000003  00                DCB      0x00
                  ptr_can2_tx_wr
000004  00                DCB      0x00
                  ptr_can2_tx_rd
000005  00                DCB      0x00
                  ||bR||
000006  00                DCB      0x00
                  bIN
000007  00                DCB      0x00
                  bIN2
000008  00                DCB      0x00
                  can_tx_cnt
000009  00                DCB      0x00
                  cnt_can_pal
00000a  00                DCB      0x00
                  plazma_can
00000b  00                DCB      0x00
                  plazma_can1
00000c  00                DCB      0x00
                  plazma_can2
00000d  00                DCB      0x00
                  plazma_can3
00000e  00                DCB      0x00
                  plazma_can4
00000f  00                DCB      0x00
                  bCAN1_INIT
000010  0000              DCB      0x00,0x00
                  gCANFilter
000012  0000              DCW      0x0000
                  can_reset_cnt
000014  0000              DCW      0x0000
                  can2_tx_cnt
000016  0000              DCB      0x00,0x00
                  CANStatus
                          DCD      0x00000000

                          AREA ||area_number.12||, DATA, ALIGN=0

                          EXPORTAS ||area_number.12||, ||.data||
                  TX_len
000000  00                DCB      0x00

                          AREA ||area_number.13||, DATA, ALIGN=0

                          EXPORTAS ||area_number.13||, ||.data||
                  rotor_rotor_rotor
000000  0000              DCB      0x00,0x00

                          AREA ||area_number.14||, DATA, ALIGN=0

                          EXPORTAS ||area_number.14||, ||.data||
                  plazma_can_pal_index
000000  00                DCB      0x00
