; generated by ARM C/C++ Compiler, 4.1 [Build 644]
; commandline ArmCC [--list --debug -c --asm --interleave -o.\EXE\full_can.o --asm_dir=.\ --list_dir=.\ --depend=.\EXE\full_can.d --feedback=.\EXE\UKU2071x_GALV_IBv2_WG12232L3.fed --cpu=Cortex-M3 --apcs=interwork -O3 -IC:\Keil\ARM\CMSIS\Include -IC:\Keil\ARM\INC\NXP\LPC17xx -D__MICROLIB -DUKU2071x -DEXT_BOARD_V_2 -DWG12232L3 --omf_browse=.\EXE\full_can.crf full_can.c]
                          THUMB

                          AREA ||.text||, CODE, READONLY, ALIGN=2

                  CRC1_in PROC
;;;109    //-----------------------------------------------
;;;110    char CRC1_in(void)
000000  b530              PUSH     {r4,r5,lr}
;;;111    {
;;;112    char r,j,lb;
;;;113    lb=(RXBUFF[1]&0x1f)+0x04;
000002  4b0a              LDR      r3,|L1.44|
;;;114    r=RXBUFF[0];
;;;115    for(j=1;j<(lb+1);j++)
000004  2201              MOVS     r2,#1
;;;116    	{
;;;117    	r=(RXBUFF[j]^Table87[r]);
000006  4c0a              LDR      r4,|L1.48|
000008  7858              LDRB     r0,[r3,#1]            ;113  ; RXBUFF
00000a  f000011f          AND      r1,r0,#0x1f           ;113
00000e  7818              LDRB     r0,[r3,#0]            ;114  ; RXBUFF
000010  1d49              ADDS     r1,r1,#5              ;115
000012  e004              B        |L1.30|
                  |L1.20|
000014  5c9d              LDRB     r5,[r3,r2]
000016  5c20              LDRB     r0,[r4,r0]
000018  4068              EORS     r0,r0,r5
00001a  1c52              ADDS     r2,r2,#1              ;115
00001c  b2d2              UXTB     r2,r2                 ;115
                  |L1.30|
00001e  428a              CMP      r2,r1                 ;115
000020  d3f8              BCC      |L1.20|
;;;118    	}
;;;119    if(r==0)r=0xFF;
000022  2800              CMP      r0,#0
000024  d100              BNE      |L1.40|
000026  20ff              MOVS     r0,#0xff
                  |L1.40|
;;;120    return r;	
;;;121    } 
000028  bd30              POP      {r4,r5,pc}
;;;122    
                          ENDP

00002a  0000              DCW      0x0000
                  |L1.44|
                          DCD      ||.bss||+0x124
                  |L1.48|
                          DCD      ||.constdata||

                          AREA ||area_number.2||, CODE, READONLY, ALIGN=2

                          EXPORTAS ||area_number.2||, ||.text||
                  CRC2_in PROC
;;;109    //-----------------------------------------------
;;;110    char CRC1_in(void)
000000  b530              PUSH     {r4,r5,lr}
;;;111    {
;;;112    char r,j,lb;
;;;113    lb=(RXBUFF[1]&0x1f)+0x04;
000002  4b0a              LDR      r3,|L2.44|
;;;114    r=RXBUFF[0];
;;;115    for(j=1;j<(lb+1);j++)
000004  2201              MOVS     r2,#1
;;;116    	{
;;;117    	r=(RXBUFF[j]^Table87[r]);
000006  4c0a              LDR      r4,|L2.48|
000008  7858              LDRB     r0,[r3,#1]            ;113  ; RXBUFF
00000a  f000011f          AND      r1,r0,#0x1f           ;113
00000e  7818              LDRB     r0,[r3,#0]            ;114  ; RXBUFF
000010  1d49              ADDS     r1,r1,#5              ;115
000012  e004              B        |L2.30|
                  |L2.20|
000014  5c9d              LDRB     r5,[r3,r2]
000016  5c20              LDRB     r0,[r4,r0]
000018  4068              EORS     r0,r0,r5
00001a  1c52              ADDS     r2,r2,#1              ;115
00001c  b2d2              UXTB     r2,r2                 ;115
                  |L2.30|
00001e  428a              CMP      r2,r1                 ;115
000020  d3f8              BCC      |L2.20|
;;;118    	}
;;;119    if(r==0)r=0xFF;
000022  2800              CMP      r0,#0
000024  d100              BNE      |L2.40|
000026  20ff              MOVS     r0,#0xff
                  |L2.40|
;;;120    return r;	
;;;121    } 
000028  bd30              POP      {r4,r5,pc}
;;;122    
                          ENDP

00002a  0000              DCW      0x0000
                  |L2.44|
                          DCD      ||.bss||+0x124
                  |L2.48|
                          DCD      ||.constdata||+0x100

                          AREA ||area_number.3||, CODE, READONLY, ALIGN=2

                          EXPORTAS ||area_number.3||, ||.text||
                  CRC1_out PROC
;;;109    //-----------------------------------------------
;;;110    char CRC1_in(void)
000000  b530              PUSH     {r4,r5,lr}
;;;111    {
;;;112    char r,j,lb;
;;;113    lb=(RXBUFF[1]&0x1f)+0x04;
000002  4b0a              LDR      r3,|L3.44|
;;;114    r=RXBUFF[0];
;;;115    for(j=1;j<(lb+1);j++)
000004  2201              MOVS     r2,#1
;;;116    	{
;;;117    	r=(RXBUFF[j]^Table87[r]);
000006  4c0a              LDR      r4,|L3.48|
000008  7858              LDRB     r0,[r3,#1]            ;113  ; TXBUFF
00000a  f000011f          AND      r1,r0,#0x1f           ;113
00000e  7818              LDRB     r0,[r3,#0]            ;114  ; TXBUFF
000010  1d49              ADDS     r1,r1,#5              ;115
000012  e004              B        |L3.30|
                  |L3.20|
000014  5c9d              LDRB     r5,[r3,r2]
000016  5c20              LDRB     r0,[r4,r0]
000018  4068              EORS     r0,r0,r5
00001a  1c52              ADDS     r2,r2,#1              ;115
00001c  b2d2              UXTB     r2,r2                 ;115
                  |L3.30|
00001e  428a              CMP      r2,r1                 ;115
000020  d3f8              BCC      |L3.20|
;;;118    	}
;;;119    if(r==0)r=0xFF;
000022  2800              CMP      r0,#0
000024  d100              BNE      |L3.40|
000026  20ff              MOVS     r0,#0xff
                  |L3.40|
;;;120    return r;	
;;;121    } 
000028  bd30              POP      {r4,r5,pc}
;;;122    
                          ENDP

00002a  0000              DCW      0x0000
                  |L3.44|
                          DCD      ||.bss||+0x14c
                  |L3.48|
                          DCD      ||.constdata||

                          AREA ||area_number.4||, CODE, READONLY, ALIGN=2

                          EXPORTAS ||area_number.4||, ||.text||
                  CRC2_out PROC
;;;109    //-----------------------------------------------
;;;110    char CRC1_in(void)
000000  b530              PUSH     {r4,r5,lr}
;;;111    {
;;;112    char r,j,lb;
;;;113    lb=(RXBUFF[1]&0x1f)+0x04;
000002  4b0a              LDR      r3,|L4.44|
;;;114    r=RXBUFF[0];
;;;115    for(j=1;j<(lb+1);j++)
000004  2201              MOVS     r2,#1
;;;116    	{
;;;117    	r=(RXBUFF[j]^Table87[r]);
000006  4c0a              LDR      r4,|L4.48|
000008  7858              LDRB     r0,[r3,#1]            ;113  ; TXBUFF
00000a  f000011f          AND      r1,r0,#0x1f           ;113
00000e  7818              LDRB     r0,[r3,#0]            ;114  ; TXBUFF
000010  1d49              ADDS     r1,r1,#5              ;115
000012  e004              B        |L4.30|
                  |L4.20|
000014  5c9d              LDRB     r5,[r3,r2]
000016  5c20              LDRB     r0,[r4,r0]
000018  4068              EORS     r0,r0,r5
00001a  1c52              ADDS     r2,r2,#1              ;115
00001c  b2d2              UXTB     r2,r2                 ;115
                  |L4.30|
00001e  428a              CMP      r2,r1                 ;115
000020  d3f8              BCC      |L4.20|
;;;118    	}
;;;119    if(r==0)r=0xFF;
000022  2800              CMP      r0,#0
000024  d100              BNE      |L4.40|
000026  20ff              MOVS     r0,#0xff
                  |L4.40|
;;;120    return r;	
;;;121    } 
000028  bd30              POP      {r4,r5,pc}
;;;122    
                          ENDP

00002a  0000              DCW      0x0000
                  |L4.44|
                          DCD      ||.bss||+0x14c
                  |L4.48|
                          DCD      ||.constdata||+0x100

                          AREA ||area_number.5||, CODE, READONLY, ALIGN=2

                          EXPORTAS ||area_number.5||, ||.text||
                  can1_out_adr PROC
;;;109    //-----------------------------------------------
;;;110    char CRC1_in(void)
000000  e92d4ff0          PUSH     {r4-r11,lr}
;;;111    {
;;;112    char r,j,lb;
;;;113    lb=(RXBUFF[1]&0x1f)+0x04;
;;;114    r=RXBUFF[0];
;;;115    for(j=1;j<(lb+1);j++)
000004  f8dfa408          LDR      r10,|L5.1040|
000008  f04f0c9e          MOV      r12,#0x9e             ;113
00000c  f89a2002          LDRB     r2,[r10,#2]           ;113
000010  1c53              ADDS     r3,r2,#1
000012  b2db              UXTB     r3,r3
;;;116    	{
;;;117    	r=(RXBUFF[j]^Table87[r]);
000014  4699              MOV      r9,r3
000016  4dff              LDR      r5,|L5.1044|
000018  2600              MOVS     r6,#0
00001a  f1050b40          ADD      r11,r5,#0x40          ;115
00001e  f1050e60          ADD      lr,r5,#0x60           ;115
;;;118    	}
;;;119    if(r==0)r=0xFF;
000022  eb0e0382          ADD      r3,lr,r2,LSL #2
000026  eb0b0482          ADD      r4,r11,r2,LSL #2
;;;120    return r;	
;;;121    } 
00002a  2908              CMP      r1,#8
00002c  d824              BHI      |L5.120|
00002e  f44f2770          MOV      r7,#0xf0000
000032  ea074101          AND      r1,r7,r1,LSL #16
000036  f8451022          STR      r1,[r5,r2,LSL #2]
00003a  f1050120          ADD      r1,r5,#0x20
00003e  46d0              MOV      r8,r10
000040  f841c022          STR      r12,[r1,r2,LSL #2]
000044  7807              LDRB     r7,[r0,#0]
000046  f80b7022          STRB     r7,[r11,r2,LSL #2]
00004a  7841              LDRB     r1,[r0,#1]
00004c  7061              STRB     r1,[r4,#1]
00004e  7881              LDRB     r1,[r0,#2]
000050  70a1              STRB     r1,[r4,#2]
000052  78c1              LDRB     r1,[r0,#3]
000054  70e1              STRB     r1,[r4,#3]
000056  7904              LDRB     r4,[r0,#4]
000058  f80e4022          STRB     r4,[lr,r2,LSL #2]
00005c  7941              LDRB     r1,[r0,#5]
00005e  7059              STRB     r1,[r3,#1]
000060  7981              LDRB     r1,[r0,#6]
000062  7099              STRB     r1,[r3,#2]
000064  79c0              LDRB     r0,[r0,#7]
000066  70d8              STRB     r0,[r3,#3]
000068  f8889002          STRB     r9,[r8,#2]
00006c  f1b90f08          CMP      r9,#8
000070  d301              BCC      |L5.118|
000072  f88a6002          STRB     r6,[r10,#2]
                  |L5.118|
000076  e18f              B        |L5.920|
                  |L5.120|
000078  f44f2700          MOV      r7,#0x80000
00007c  2910              CMP      r1,#0x10
00007e  d856              BHI      |L5.302|
000080  f8dfc390          LDR      r12,|L5.1044|
000084  f8457022          STR      r7,[r5,r2,LSL #2]
000088  279e              MOVS     r7,#0x9e
00008a  f10c0c20          ADD      r12,r12,#0x20
00008e  f1b90f08          CMP      r9,#8
000092  f84c7022          STR      r7,[r12,r2,LSL #2]
000096  f8908000          LDRB     r8,[r0,#0]
00009a  f80b8022          STRB     r8,[r11,r2,LSL #2]
00009e  f8908001          LDRB     r8,[r0,#1]
0000a2  f8848001          STRB     r8,[r4,#1]
0000a6  f8908002          LDRB     r8,[r0,#2]
0000aa  f8848002          STRB     r8,[r4,#2]
0000ae  f8908003          LDRB     r8,[r0,#3]
0000b2  f8848003          STRB     r8,[r4,#3]
0000b6  f8908004          LDRB     r8,[r0,#4]
0000ba  f80e8022          STRB     r8,[lr,r2,LSL #2]
0000be  7942              LDRB     r2,[r0,#5]
0000c0  705a              STRB     r2,[r3,#1]
0000c2  7982              LDRB     r2,[r0,#6]
0000c4  709a              STRB     r2,[r3,#2]
0000c6  79c2              LDRB     r2,[r0,#7]
0000c8  70da              STRB     r2,[r3,#3]
0000ca  465f              MOV      r7,r11
0000cc  4674              MOV      r4,lr
0000ce  4653              MOV      r3,r10
0000d0  f88a9002          STRB     r9,[r10,#2]
0000d4  d300              BCC      |L5.216|
0000d6  709e              STRB     r6,[r3,#2]
                  |L5.216|
0000d8  3908              SUBS     r1,r1,#8
0000da  f44f2270          MOV      r2,#0xf0000
0000de  ea024201          AND      r2,r2,r1,LSL #16
0000e2  f89a1002          LDRB     r1,[r10,#2]  ; ptr_can1_tx_wr
0000e6  eb0b0381          ADD      r3,r11,r1,LSL #2
0000ea  f8452021          STR      r2,[r5,r1,LSL #2]
0000ee  229e              MOVS     r2,#0x9e
0000f0  f84c2021          STR      r2,[r12,r1,LSL #2]
0000f4  7a02              LDRB     r2,[r0,#8]
0000f6  f8072021          STRB     r2,[r7,r1,LSL #2]
0000fa  7a42              LDRB     r2,[r0,#9]
0000fc  705a              STRB     r2,[r3,#1]
0000fe  7a82              LDRB     r2,[r0,#0xa]
000100  709a              STRB     r2,[r3,#2]
000102  7ac2              LDRB     r2,[r0,#0xb]
000104  70da              STRB     r2,[r3,#3]
000106  7b02              LDRB     r2,[r0,#0xc]
000108  f8042021          STRB     r2,[r4,r1,LSL #2]
00010c  eb0e0281          ADD      r2,lr,r1,LSL #2
000110  7b43              LDRB     r3,[r0,#0xd]
000112  7053              STRB     r3,[r2,#1]
000114  7b83              LDRB     r3,[r0,#0xe]
000116  7093              STRB     r3,[r2,#2]
000118  7bc0              LDRB     r0,[r0,#0xf]
00011a  70d0              STRB     r0,[r2,#3]
00011c  1c49              ADDS     r1,r1,#1
00011e  b2c8              UXTB     r0,r1
000120  4651              MOV      r1,r10
000122  f88a0002          STRB     r0,[r10,#2]
000126  2808              CMP      r0,#8
000128  d3a5              BCC      |L5.118|
00012a  708e              STRB     r6,[r1,#2]
00012c  e134              B        |L5.920|
                  |L5.302|
00012e  2918              CMP      r1,#0x18
000130  d87e              BHI      |L5.560|
000132  f8df82e0          LDR      r8,|L5.1044|
000136  f8457022          STR      r7,[r5,r2,LSL #2]
00013a  f1080820          ADD      r8,r8,#0x20
00013e  f04f0c9e          MOV      r12,#0x9e
000142  f848c022          STR      r12,[r8,r2,LSL #2]
000146  f8908000          LDRB     r8,[r0,#0]
00014a  f80b8022          STRB     r8,[r11,r2,LSL #2]
00014e  f890c001          LDRB     r12,[r0,#1]
000152  f884c001          STRB     r12,[r4,#1]
000156  f890c002          LDRB     r12,[r0,#2]
00015a  f884c002          STRB     r12,[r4,#2]
00015e  f890c003          LDRB     r12,[r0,#3]
000162  f884c003          STRB     r12,[r4,#3]
000166  f890c004          LDRB     r12,[r0,#4]
00016a  f80ec022          STRB     r12,[lr,r2,LSL #2]
00016e  7942              LDRB     r2,[r0,#5]
000170  705a              STRB     r2,[r3,#1]
000172  7982              LDRB     r2,[r0,#6]
000174  709a              STRB     r2,[r3,#2]
000176  79c2              LDRB     r2,[r0,#7]
000178  70da              STRB     r2,[r3,#3]
00017a  4674              MOV      r4,lr
00017c  4653              MOV      r3,r10
00017e  f88a9002          STRB     r9,[r10,#2]
000182  f1b90f08          CMP      r9,#8
000186  d300              BCC      |L5.394|
000188  709e              STRB     r6,[r3,#2]
                  |L5.394|
00018a  f89a2002          LDRB     r2,[r10,#2]  ; ptr_can1_tx_wr
00018e  f8df9284          LDR      r9,|L5.1044|
000192  eb0b0382          ADD      r3,r11,r2,LSL #2
000196  f8457022          STR      r7,[r5,r2,LSL #2]
00019a  f1090920          ADD      r9,r9,#0x20
00019e  279e              MOVS     r7,#0x9e
0001a0  f8497022          STR      r7,[r9,r2,LSL #2]
0001a4  f890c008          LDRB     r12,[r0,#8]
0001a8  f80bc022          STRB     r12,[r11,r2,LSL #2]
0001ac  f890c009          LDRB     r12,[r0,#9]
0001b0  f883c001          STRB     r12,[r3,#1]
0001b4  f890c00a          LDRB     r12,[r0,#0xa]
0001b8  f883c002          STRB     r12,[r3,#2]
0001bc  f890c00b          LDRB     r12,[r0,#0xb]
0001c0  f883c003          STRB     r12,[r3,#3]
0001c4  7b03              LDRB     r3,[r0,#0xc]
0001c6  f8043022          STRB     r3,[r4,r2,LSL #2]
0001ca  eb040c82          ADD      r12,r4,r2,LSL #2
0001ce  7b43              LDRB     r3,[r0,#0xd]
0001d0  f88c3001          STRB     r3,[r12,#1]
0001d4  7b83              LDRB     r3,[r0,#0xe]
0001d6  f88c3002          STRB     r3,[r12,#2]
0001da  7bc3              LDRB     r3,[r0,#0xf]
0001dc  1c52              ADDS     r2,r2,#1
0001de  46d0              MOV      r8,r10
0001e0  f88c3003          STRB     r3,[r12,#3]
0001e4  b2d2              UXTB     r2,r2
0001e6  4643              MOV      r3,r8
0001e8  f8882002          STRB     r2,[r8,#2]
0001ec  2a08              CMP      r2,#8
0001ee  d300              BCC      |L5.498|
0001f0  709e              STRB     r6,[r3,#2]
                  |L5.498|
0001f2  3910              SUBS     r1,r1,#0x10
0001f4  f44f2270          MOV      r2,#0xf0000
0001f8  ea024301          AND      r3,r2,r1,LSL #16
0001fc  f8981002          LDRB     r1,[r8,#2]  ; ptr_can1_tx_wr
000200  4642              MOV      r2,r8
000202  f8453021          STR      r3,[r5,r1,LSL #2]
000206  f8497021          STR      r7,[r9,r1,LSL #2]
00020a  7c07              LDRB     r7,[r0,#0x10]
00020c  f80b7021          STRB     r7,[r11,r1,LSL #2]
000210  eb0b0381          ADD      r3,r11,r1,LSL #2
000214  7c47              LDRB     r7,[r0,#0x11]
000216  705f              STRB     r7,[r3,#1]
000218  7c87              LDRB     r7,[r0,#0x12]
00021a  709f              STRB     r7,[r3,#2]
00021c  7cc7              LDRB     r7,[r0,#0x13]
00021e  70df              STRB     r7,[r3,#3]
000220  7d03              LDRB     r3,[r0,#0x14]
000222  f8043021          STRB     r3,[r4,r1,LSL #2]
000226  eb0e0481          ADD      r4,lr,r1,LSL #2
00022a  7d43              LDRB     r3,[r0,#0x15]
00022c  7063              STRB     r3,[r4,#1]
00022e  e000              B        |L5.562|
                  |L5.560|
000230  e007              B        |L5.578|
                  |L5.562|
000232  7d83              LDRB     r3,[r0,#0x16]
000234  70a3              STRB     r3,[r4,#2]
000236  7dc0              LDRB     r0,[r0,#0x17]
000238  70e0              STRB     r0,[r4,#3]
00023a  1c49              ADDS     r1,r1,#1
00023c  b2c8              UXTB     r0,r1
00023e  7090              STRB     r0,[r2,#2]
000240  e0a6              B        |L5.912|
                  |L5.578|
000242  2920              CMP      r1,#0x20
000244  d87d              BHI      |L5.834|
000246  f8df81cc          LDR      r8,|L5.1044|
00024a  f8457022          STR      r7,[r5,r2,LSL #2]
00024e  f1080820          ADD      r8,r8,#0x20
000252  f04f0c9e          MOV      r12,#0x9e
000256  f848c022          STR      r12,[r8,r2,LSL #2]
00025a  f8908000          LDRB     r8,[r0,#0]
00025e  f80b8022          STRB     r8,[r11,r2,LSL #2]
000262  f890c001          LDRB     r12,[r0,#1]
000266  f884c001          STRB     r12,[r4,#1]
00026a  f890c002          LDRB     r12,[r0,#2]
00026e  f884c002          STRB     r12,[r4,#2]
000272  f890c003          LDRB     r12,[r0,#3]
000276  f884c003          STRB     r12,[r4,#3]
00027a  f890c004          LDRB     r12,[r0,#4]
00027e  f80ec022          STRB     r12,[lr,r2,LSL #2]
000282  7942              LDRB     r2,[r0,#5]
000284  705a              STRB     r2,[r3,#1]
000286  7982              LDRB     r2,[r0,#6]
000288  709a              STRB     r2,[r3,#2]
00028a  79c2              LDRB     r2,[r0,#7]
00028c  70da              STRB     r2,[r3,#3]
00028e  4653              MOV      r3,r10
000290  f88a9002          STRB     r9,[r10,#2]
000294  f1b90f08          CMP      r9,#8
000298  d300              BCC      |L5.668|
00029a  709e              STRB     r6,[r3,#2]
                  |L5.668|
00029c  f89a2002          LDRB     r2,[r10,#2]  ; ptr_can1_tx_wr
0002a0  4b5c              LDR      r3,|L5.1044|
0002a2  f04f0c9e          MOV      r12,#0x9e
0002a6  3320              ADDS     r3,r3,#0x20
0002a8  f8457022          STR      r7,[r5,r2,LSL #2]
0002ac  f843c022          STR      r12,[r3,r2,LSL #2]
0002b0  7a04              LDRB     r4,[r0,#8]
0002b2  f80b4022          STRB     r4,[r11,r2,LSL #2]
0002b6  eb0b0382          ADD      r3,r11,r2,LSL #2
0002ba  7a44              LDRB     r4,[r0,#9]
0002bc  705c              STRB     r4,[r3,#1]
0002be  7a84              LDRB     r4,[r0,#0xa]
0002c0  709c              STRB     r4,[r3,#2]
0002c2  7ac4              LDRB     r4,[r0,#0xb]
0002c4  70dc              STRB     r4,[r3,#3]
0002c6  7b04              LDRB     r4,[r0,#0xc]
0002c8  f80e4022          STRB     r4,[lr,r2,LSL #2]
0002cc  eb0e0382          ADD      r3,lr,r2,LSL #2
0002d0  7b44              LDRB     r4,[r0,#0xd]
0002d2  705c              STRB     r4,[r3,#1]
0002d4  7b84              LDRB     r4,[r0,#0xe]
0002d6  709c              STRB     r4,[r3,#2]
0002d8  7bc4              LDRB     r4,[r0,#0xf]
0002da  1c52              ADDS     r2,r2,#1
0002dc  46d0              MOV      r8,r10
0002de  70dc              STRB     r4,[r3,#3]
0002e0  b2d2              UXTB     r2,r2
0002e2  46d9              MOV      r9,r11
0002e4  4643              MOV      r3,r8
0002e6  f8882002          STRB     r2,[r8,#2]
0002ea  2a08              CMP      r2,#8
0002ec  d300              BCC      |L5.752|
0002ee  709e              STRB     r6,[r3,#2]
                  |L5.752|
0002f0  f8982002          LDRB     r2,[r8,#2]  ; ptr_can1_tx_wr
0002f4  4b47              LDR      r3,|L5.1044|
0002f6  f8457022          STR      r7,[r5,r2,LSL #2]
0002fa  3320              ADDS     r3,r3,#0x20
0002fc  eb0e0782          ADD      r7,lr,r2,LSL #2
000300  f843c022          STR      r12,[r3,r2,LSL #2]
000304  7c04              LDRB     r4,[r0,#0x10]
000306  f8094022          STRB     r4,[r9,r2,LSL #2]
00030a  eb090382          ADD      r3,r9,r2,LSL #2
00030e  7c44              LDRB     r4,[r0,#0x11]
000310  705c              STRB     r4,[r3,#1]
000312  7c84              LDRB     r4,[r0,#0x12]
000314  709c              STRB     r4,[r3,#2]
000316  7cc4              LDRB     r4,[r0,#0x13]
000318  70dc              STRB     r4,[r3,#3]
00031a  7d04              LDRB     r4,[r0,#0x14]
00031c  f80e4022          STRB     r4,[lr,r2,LSL #2]
000320  7d44              LDRB     r4,[r0,#0x15]
000322  707c              STRB     r4,[r7,#1]
000324  7d84              LDRB     r4,[r0,#0x16]
000326  70bc              STRB     r4,[r7,#2]
000328  7dc4              LDRB     r4,[r0,#0x17]
00032a  1c52              ADDS     r2,r2,#1
00032c  70fc              STRB     r4,[r7,#3]
00032e  b2d2              UXTB     r2,r2
000330  4673              MOV      r3,lr
000332  4644              MOV      r4,r8
000334  f8882002          STRB     r2,[r8,#2]
000338  2a08              CMP      r2,#8
00033a  d300              BCC      |L5.830|
00033c  70a6              STRB     r6,[r4,#2]
                  |L5.830|
00033e  3918              SUBS     r1,r1,#0x18
000340  e000              B        |L5.836|
                  |L5.834|
000342  e029              B        |L5.920|
                  |L5.836|
000344  f44f2270          MOV      r2,#0xf0000
000348  ea024201          AND      r2,r2,r1,LSL #16
00034c  f8981002          LDRB     r1,[r8,#2]  ; ptr_can1_tx_wr
000350  4644              MOV      r4,r8
000352  f8452021          STR      r2,[r5,r1,LSL #2]
000356  4a2f              LDR      r2,|L5.1044|
000358  3220              ADDS     r2,r2,#0x20
00035a  f842c021          STR      r12,[r2,r1,LSL #2]
00035e  7e07              LDRB     r7,[r0,#0x18]
000360  f8097021          STRB     r7,[r9,r1,LSL #2]
000364  eb090281          ADD      r2,r9,r1,LSL #2
000368  7e47              LDRB     r7,[r0,#0x19]
00036a  7057              STRB     r7,[r2,#1]
00036c  7e87              LDRB     r7,[r0,#0x1a]
00036e  7097              STRB     r7,[r2,#2]
000370  7ec7              LDRB     r7,[r0,#0x1b]
000372  70d7              STRB     r7,[r2,#3]
000374  7f02              LDRB     r2,[r0,#0x1c]
000376  f8032021          STRB     r2,[r3,r1,LSL #2]
00037a  eb0e0381          ADD      r3,lr,r1,LSL #2
00037e  7f42              LDRB     r2,[r0,#0x1d]
000380  705a              STRB     r2,[r3,#1]
000382  7f82              LDRB     r2,[r0,#0x1e]
000384  709a              STRB     r2,[r3,#2]
000386  7fc0              LDRB     r0,[r0,#0x1f]
000388  70d8              STRB     r0,[r3,#3]
00038a  1c49              ADDS     r1,r1,#1
00038c  b2c8              UXTB     r0,r1
00038e  70a0              STRB     r0,[r4,#2]
                  |L5.912|
000390  2808              CMP      r0,#8
000392  d301              BCC      |L5.920|
000394  f8886002          STRB     r6,[r8,#2]
                  |L5.920|
000398  f89a1000          LDRB     r1,[r10,#0]  ; bOUT_FREE
00039c  4650              MOV      r0,r10
00039e  2900              CMP      r1,#0
0003a0  d019              BEQ      |L5.982|
0003a2  78c1              LDRB     r1,[r0,#3]  ; ptr_can1_tx_rd
0003a4  4a1c              LDR      r2,|L5.1048|
0003a6  f8553021          LDR      r3,[r5,r1,LSL #2]
0003aa  6313              STR      r3,[r2,#0x30]
0003ac  4b19              LDR      r3,|L5.1044|
0003ae  3320              ADDS     r3,r3,#0x20
0003b0  f8533021          LDR      r3,[r3,r1,LSL #2]
0003b4  6353              STR      r3,[r2,#0x34]
0003b6  f85b3021          LDR      r3,[r11,r1,LSL #2]
0003ba  6393              STR      r3,[r2,#0x38]
0003bc  f85e3021          LDR      r3,[lr,r1,LSL #2]
0003c0  63d3              STR      r3,[r2,#0x3c]
0003c2  2321              MOVS     r3,#0x21
0003c4  6053              STR      r3,[r2,#4]
0003c6  1c49              ADDS     r1,r1,#1
0003c8  b2c9              UXTB     r1,r1
0003ca  70c1              STRB     r1,[r0,#3]
0003cc  2908              CMP      r1,#8
0003ce  d300              BCC      |L5.978|
0003d0  70c6              STRB     r6,[r0,#3]
                  |L5.978|
0003d2  f88a6000          STRB     r6,[r10,#0]
                  |L5.982|
0003d6  e8bd8ff0          POP      {r4-r11,pc}
;;;122    
                          ENDP

                  can2_out PROC
;;;549    //-----------------------------------------------
;;;550    void can2_out(char dat0,char dat1,char dat2,char dat3,char dat4,char dat5,char dat6,char dat7)
0003da  e92d4ff0          PUSH     {r4-r11,lr}
;;;551    {
0003de  ac09              ADD      r4,sp,#0x24
;;;552    
;;;553    //new_rotor[0]++;
;;;554    can2_info[ptr_can2_tx_wr]=((8UL)<<16)&0x000f0000UL;
0003e0  4f0c              LDR      r7,|L5.1044|
0003e2  e8b44d00          LDM      r4!,{r8,r10,r11,lr}   ;551
0003e6  4c0a              LDR      r4,|L5.1040|
0003e8  3780              ADDS     r7,r7,#0x80
0003ea  f44f2600          MOV      r6,#0x80000
0003ee  7925              LDRB     r5,[r4,#4]  ; ptr_can2_tx_wr
;;;555    can2_id[ptr_can2_tx_wr]=0x0000018eUL;
0003f0  f1070920          ADD      r9,r7,#0x20
0003f4  f44f7cc7          MOV      r12,#0x18e
0003f8  f8476025          STR      r6,[r7,r5,LSL #2]     ;554
;;;556    *((char*)&can2_data[ptr_can2_tx_wr])=dat0;
0003fc  f1070640          ADD      r6,r7,#0x40
000400  f849c025          STR      r12,[r9,r5,LSL #2]    ;555
000404  f8060025          STRB     r0,[r6,r5,LSL #2]
;;;557    *(((char*)&can2_data[ptr_can2_tx_wr])+1)=dat1;
000408  eb060085          ADD      r0,r6,r5,LSL #2
00040c  7041              STRB     r1,[r0,#1]
;;;558    *(((char*)&can2_data[ptr_can2_tx_wr])+2)=dat2;
00040e  e005              B        |L5.1052|
                  |L5.1040|
                          DCD      ||.data||
                  |L5.1044|
                          DCD      ||.bss||
                  |L5.1048|
                          DCD      0x40044000
                  |L5.1052|
00041c  7082              STRB     r2,[r0,#2]
;;;559    *(((char*)&can2_data[ptr_can2_tx_wr])+3)=dat3;
00041e  70c3              STRB     r3,[r0,#3]
;;;560    *((char*)&can2_datb[ptr_can2_tx_wr])=dat4;
000420  f1060020          ADD      r0,r6,#0x20
;;;561    *(((char*)&can2_datb[ptr_can2_tx_wr])+1)=dat5;
000424  eb000285          ADD      r2,r0,r5,LSL #2
000428  f8008025          STRB     r8,[r0,r5,LSL #2]     ;560
00042c  f882a001          STRB     r10,[r2,#1]
;;;562    *(((char*)&can2_datb[ptr_can2_tx_wr])+2)=dat6;
000430  f882b002          STRB     r11,[r2,#2]
;;;563    *(((char*)&can2_datb[ptr_can2_tx_wr])+3)=dat7;	
000434  f882e003          STRB     lr,[r2,#3]
;;;564    ptr_can2_tx_wr++;
000438  1c6d              ADDS     r5,r5,#1
00043a  b2e9              UXTB     r1,r5
;;;565    if(ptr_can2_tx_wr>=8)ptr_can2_tx_wr=0;
00043c  2200              MOVS     r2,#0
00043e  7121              STRB     r1,[r4,#4]            ;564
000440  2908              CMP      r1,#8
000442  d300              BCC      |L5.1094|
000444  7122              STRB     r2,[r4,#4]
                  |L5.1094|
;;;566    
;;;567    
;;;568    if(bOUT_FREE2)
000446  7861              LDRB     r1,[r4,#1]  ; bOUT_FREE2
000448  2900              CMP      r1,#0
00044a  d0c4              BEQ      |L5.982|
;;;569    	{
;;;570    	//rotor_rotor_rotor[1]++;
;;;571    //	new_rotor[1]++;
;;;572    	LPC_CAN2->TFI1=can2_info[ptr_can2_tx_rd];
00044c  7961              LDRB     r1,[r4,#5]  ; ptr_can2_tx_rd
00044e  4bfd              LDR      r3,|L5.2116|
000450  f8575021          LDR      r5,[r7,r1,LSL #2]
000454  631d              STR      r5,[r3,#0x30]
;;;573         LPC_CAN2->TID1=can2_id[ptr_can2_tx_rd];
000456  f8595021          LDR      r5,[r9,r1,LSL #2]
00045a  635d              STR      r5,[r3,#0x34]
;;;574         LPC_CAN2->TDA1=can2_data[ptr_can2_tx_rd];
00045c  f8565021          LDR      r5,[r6,r1,LSL #2]
000460  639d              STR      r5,[r3,#0x38]
;;;575         LPC_CAN2->TDB1=can2_datb[ptr_can2_tx_rd];
000462  f8500021          LDR      r0,[r0,r1,LSL #2]
000466  63d8              STR      r0,[r3,#0x3c]
;;;576         LPC_CAN2->CMR=0x00000021;
000468  2021              MOVS     r0,#0x21
00046a  6058              STR      r0,[r3,#4]
;;;577         ptr_can2_tx_rd++;
00046c  1c49              ADDS     r1,r1,#1
00046e  b2c8              UXTB     r0,r1
000470  7160              STRB     r0,[r4,#5]
;;;578         if(ptr_can2_tx_rd>=8)ptr_can2_tx_rd=0;
000472  2808              CMP      r0,#8
000474  d300              BCC      |L5.1144|
000476  7162              STRB     r2,[r4,#5]
                  |L5.1144|
;;;579         bOUT_FREE2=0;	
000478  7062              STRB     r2,[r4,#1]
;;;580    	}
;;;581    }	
00047a  e7ac              B        |L5.982|
;;;582    	
                          ENDP

                  can_in_an2 PROC
;;;593    //-----------------------------------------------
;;;594    void can_in_an2(void)
00047c  e92d4ff0          PUSH     {r4-r11,lr}
;;;595    {
;;;596    if(!bIN) goto CAN_IN_AN_end; 
000480  48f1              LDR      r0,|L5.2120|
000482  b089              SUB      sp,sp,#0x24           ;595
000484  f04f0b00          MOV      r11,#0
000488  79c0              LDRB     r0,[r0,#7]  ; bIN
00048a  2800              CMP      r0,#0
00048c  d07e              BEQ      |L5.1420|
;;;597    //can_debug_plazma[0][1]++;
;;;598    can2_plazma++;
00048e  49ef              LDR      r1,|L5.2124|
000490  7808              LDRB     r0,[r1,#0]  ; can2_plazma
000492  1c40              ADDS     r0,r0,#1
000494  7008              STRB     r0,[r1,#0]
;;;599    
;;;600    if(RXBUFF[0]==45)
000496  48ee              LDR      r0,|L5.2128|
000498  7803              LDRB     r3,[r0,#0]  ; RXBUFF
00049a  2b2d              CMP      r3,#0x2d
00049c  d077              BEQ      |L5.1422|
;;;601    	{
;;;602    	tumbler_stat=(enum_tumbler_stat)RXBUFF[1];
;;;603    	if((tumbler_stat!=tumbler_stat_old))
;;;604    		{
;;;605    		if(tumbler_stat==tsU)
;;;606    			{
;;;607    			lc640_write_int(EE_MAIN_MENU_MODE,mmmIN);
;;;608    			}
;;;609    		else lc640_write_int(EE_MAIN_MENU_MODE,mmmIT);
;;;610    		
;;;611    		if(main_cnt>3)
;;;612    			{
;;;613    			work_stat=wsOFF;
;;;614    			restart_off();
;;;615    			}
;;;616    		}
;;;617    	tumbler_stat_old=tumbler_stat;
;;;618    	}
;;;619    
;;;620    else if(RXBUFF[0]==61)
;;;621    	{
;;;622    	if(I_ug<1000)I_ug++;
00049e  f8dfc3c0          LDR      r12,|L5.2144|
;;;623    	else I_ug=((I_ug/10)+1)*10;
0004a2  240a              MOVS     r4,#0xa
;;;624    	gran(&I_ug,I_MIN_IPS,I_MAX_IPS);
0004a4  4aeb              LDR      r2,|L5.2132|
0004a6  f9bc0000          LDRSH    r0,[r12,#0]           ;622
0004aa  49eb              LDR      r1,|L5.2136|
0004ac  fb90f7f4          SDIV     r7,r0,r4              ;623
0004b0  1c7d              ADDS     r5,r7,#1              ;623
0004b2  eb050585          ADD      r5,r5,r5,LSL #2       ;623
0004b6  006d              LSLS     r5,r5,#1              ;623
;;;625    	I_ug_block_cnt=10;
0004b8  f8df93a0          LDR      r9,|L5.2140|
0004bc  f9b22000          LDRSH    r2,[r2,#0]            ;624
0004c0  f9b11000          LDRSH    r1,[r1,#0]            ;624
0004c4  f44f7a7a          MOV      r10,#0x3e8            ;622
0004c8  fa0ff885          SXTH     r8,r5                 ;623
0004cc  2b3d              CMP      r3,#0x3d              ;620
0004ce  d071              BEQ      |L5.1460|
0004d0  4666              MOV      r6,r12                ;622
0004d2  250a              MOVS     r5,#0xa               ;623
0004d4  f9b66000          LDRSH    r6,[r6,#0]            ;622
0004d8  fb96f5f5          SDIV     r5,r6,r5              ;623
;;;626    	//lc640_write_int(EE_I_UG,I_ug);
;;;627    	}
;;;628    
;;;629    else if(RXBUFF[0]==62)
;;;630    	{
;;;631    	if(I_ug<1000)I_ug--;
;;;632    	else I_ug=((I_ug/10)-1)*10;
0004dc  1e6d              SUBS     r5,r5,#1
0004de  eb050585          ADD      r5,r5,r5,LSL #2
0004e2  006d              LSLS     r5,r5,#1
0004e4  b22d              SXTH     r5,r5
0004e6  2b3e              CMP      r3,#0x3e              ;629
0004e8  d07e              BEQ      |L5.1512|
;;;633    	gran(&I_ug,I_MIN_IPS,I_MAX_IPS);
;;;634    	I_ug_block_cnt=10;
;;;635    	//lc640_write_int(EE_I_UG,I_ug);
;;;636    	}
;;;637    else if(RXBUFF[0]==63)
0004ea  2b3f              CMP      r3,#0x3f
0004ec  d07d              BEQ      |L5.1514|
;;;638    	{
;;;639    	if(I_ug<1000)I_ug=((I_ug/10)+1)*10;
;;;640    	else I_ug=((I_ug/10)+5)*10;
;;;641    	gran(&I_ug,I_MIN_IPS,I_MAX_IPS);
;;;642    	I_ug_block_cnt=10;
;;;643    	//lc640_write_int(EE_I_UG,I_ug);
;;;644    	}
;;;645    
;;;646    else if(RXBUFF[0]==64)
0004ee  2b40              CMP      r3,#0x40
0004f0  d07c              BEQ      |L5.1516|
;;;647    	{
;;;648    	if(I_ug<1000)I_ug=((I_ug/10)-1)*10;
;;;649    	else I_ug=((I_ug/10)-5)*10;
;;;650    	gran(&I_ug,I_MIN_IPS,I_MAX_IPS);
;;;651    	I_ug_block_cnt=10;
;;;652    	//lc640_write_int(EE_I_UG,I_ug);
;;;653    	}
;;;654    
;;;655    else if(RXBUFF[0]==71)
;;;656    	{
;;;657    	U_up++;
0004f2  48dc              LDR      r0,|L5.2148|
;;;658    	gran(&U_up,U_MIN,U_MAX);
0004f4  4adc              LDR      r2,|L5.2152|
0004f6  49dd              LDR      r1,|L5.2156|
;;;659    	U_up_block_cnt=10;
0004f8  4fdd              LDR      r7,|L5.2160|
0004fa  f9b05000          LDRSH    r5,[r0,#0]            ;657
0004fe  f9b22000          LDRSH    r2,[r2,#0]            ;658
000502  f9b11000          LDRSH    r1,[r1,#0]            ;658
000506  2b47              CMP      r3,#0x47              ;655
000508  d071              BEQ      |L5.1518|
;;;660    	}
;;;661    
;;;662    else if(RXBUFF[0]==72)
00050a  2b48              CMP      r3,#0x48
00050c  d070              BEQ      |L5.1520|
00050e  4606              MOV      r6,r0                 ;657
000510  250a              MOVS     r5,#0xa               ;623
000512  f9b66000          LDRSH    r6,[r6,#0]            ;657
;;;663    	{
;;;664    	U_up--;
;;;665    	gran(&U_up,U_MIN,U_MAX);
;;;666    	U_up_block_cnt=10;
;;;667    
;;;668    	}
;;;669    else if(RXBUFF[0]==73)
000516  2b49              CMP      r3,#0x49
;;;670    	{
;;;671    	U_up=((U_up/10)+1)*10;
000518  fb96f5f5          SDIV     r5,r6,r5
00051c  d069              BEQ      |L5.1522|
;;;672    	gran(&U_up,U_MIN,U_MAX);
;;;673    	U_up_block_cnt=10;
;;;674    	}
;;;675    
;;;676    else if(RXBUFF[0]==74)
00051e  2b4a              CMP      r3,#0x4a
000520  d068              BEQ      |L5.1524|
000522  48d5              LDR      r0,|L5.2168|
;;;677    	{
;;;678    	U_up=((U_up/10)-1)*10;
;;;679    	gran(&U_up,U_MIN,U_MAX);
;;;680    	U_up_block_cnt=10;
;;;681    	}
;;;682    
;;;683    
;;;684    else if(RXBUFF[0]==51)	//время+
;;;685    	{
;;;686    	if((main_menu_mode==mmmIT)&&(work_stat==wsOFF))
;;;687    		{
;;;688    		if(TIME_VISION_PULT)
000524  49d3              LDR      r1,|L5.2164|
;;;689    			{
;;;690    			T_PROC_GS=(((T_PROC_GS/60L)+1L)*60L);
000526  f8dfe358          LDR      lr,|L5.2176|
00052a  7805              LDRB     r5,[r0,#0]            ;613
00052c  48d3              LDR      r0,|L5.2172|
00052e  9500              STR      r5,[sp,#0]            ;686
000530  223c              MOVS     r2,#0x3c
000532  7800              LDRB     r0,[r0,#0]            ;686
000534  9002              STR      r0,[sp,#8]            ;686
000536  4328              ORRS     r0,r0,r5              ;686
000538  9001              STR      r0,[sp,#4]            ;688
00053a  f9b10000          LDRSH    r0,[r1,#0]            ;688
;;;691    			T_PROC_GS_block_cnt=10;
;;;692    			}
;;;693    		else
;;;694    			{
;;;695    			T_PROC_GS++;
;;;696    			T_PROC_GS_block_cnt=10;
;;;697    			}
;;;698    
;;;699    		if(T_PROC_GS>T_PROC_MAX)								 	//Если устанавливаем врямя процесса
;;;700    			{												//для источника тока больше чем 
;;;701    			T_PROC_GS=T_PROC_MAX+1;								//максимальное время процессов
;;;702    			if(T_PROC_GS_MODE!=1)								//(из главных установок) то 
;;;703    				{											//устанавливается режим непрерывной 
;;;704    				T_PROC_GS_MODE=1;								//работы(T_PROC_GS_MODE=1), при попытке
;;;705    				lc640_write_int(EE_T_PROC_GS_MODE,T_PROC_GS_MODE);	//вернуть время в разрешенный интеравал - 
;;;706    				}											//режим непрерывной работы снимается 
;;;707    			}												//(T_PROC_GS_MODE=0)
;;;708    	
;;;709    		else if(T_PROC_GS<30)
;;;710    			{
;;;711    			T_PROC_GS=29;
;;;712    			if(T_PROC_GS_MODE!=1)
;;;713    				{
;;;714    				T_PROC_GS_MODE=1;
;;;715    				lc640_write_int(EE_T_PROC_GS_MODE,T_PROC_GS_MODE);
;;;716    				}
;;;717    			}
;;;718    		else 
;;;719    			{
;;;720    			if(T_PROC_GS_MODE!=0)
;;;721    				{
;;;722    				T_PROC_GS_MODE=0;
;;;723    				lc640_write_int(EE_T_PROC_GS_MODE,T_PROC_GS_MODE);
;;;724    				}
;;;725    			}			
;;;726    		}
;;;727    	else if((main_menu_mode==mmmIN)&&(work_stat==wsOFF))
;;;728    		{
;;;729    		if(TIME_VISION_PULT)
;;;730    			{
;;;731    			T_PROC_PS=(((T_PROC_PS/60L)+1L)*60L);
00053e  f8dfa34c          LDR      r10,|L5.2188|
000542  4680              MOV      r8,r0                 ;688
000544  f8de0000          LDR      r0,[lr,#0]            ;690
000548  9003              STR      r0,[sp,#0xc]          ;690
00054a  fb90f0f2          SDIV     r0,r0,r2              ;690
00054e  9004              STR      r0,[sp,#0x10]         ;699
000550  f8da5000          LDR      r5,[r10,#0]
000554  48cb              LDR      r0,|L5.2180|
000556  fb95f2f2          SDIV     r2,r5,r2
00055a  49cb              LDR      r1,|L5.2184|
00055c  f8b0c000          LDRH     r12,[r0,#0]           ;699
000560  f04f0901          MOV      r9,#1                 ;602
000564  f9b11000          LDRSH    r1,[r1,#0]            ;702
000568  e9cd2505          STRD     r2,r5,[sp,#0x14]
;;;732    			T_PROC_PS_block_cnt=10;
;;;733    			}
;;;734    		else
;;;735    			{
;;;736    			T_PROC_PS++;
;;;737    			T_PROC_PS_block_cnt=10;
;;;738    			}
;;;739    
;;;740    		if(T_PROC_PS>T_PROC_MAX)								 	//Если устанавливаем врямя процесса
;;;741    			{												//для источника тока больше чем 
;;;742    			T_PROC_PS=T_PROC_MAX+1;								//максимальное время процессов
;;;743    			if(T_PROC_PS_MODE!=1)								//(из главных установок) то 
00056c  4ac8              LDR      r2,|L5.2192|
00056e  f10c0001          ADD      r0,r12,#1             ;701
000572  2b33              CMP      r3,#0x33              ;684
000574  f9b22000          LDRSH    r2,[r2,#0]
000578  d073              BEQ      |L5.1634|
00057a  4675              MOV      r5,lr                 ;690
;;;744    				{											//устанавливается режим непрерывной 
;;;745    				T_PROC_PS_MODE=1;								//работы(T_PROC_PS_MODE=1), при попытке
;;;746    				lc640_write_int(EE_T_PROC_PS_MODE,T_PROC_PS_MODE);	//вернуть время в разрешенный интеравал - 
;;;747    				}											//режим непрерывной работы снимается 
;;;748    			}												//(T_PROC_PS_MODE=0)
;;;749    	
;;;750    		else if(T_PROC_PS<30)
;;;751    			{
;;;752    			T_PROC_PS=29;
;;;753    			if(T_PROC_PS_MODE!=1)
;;;754    				{
;;;755    				T_PROC_PS_MODE=1;
;;;756    				lc640_write_int(EE_T_PROC_PS_MODE,T_PROC_PS_MODE);
;;;757    				}
;;;758    			}
;;;759    		else 
;;;760    			{
;;;761    			if(T_PROC_PS_MODE!=0)
;;;762    				{
;;;763    				T_PROC_PS_MODE=0;
;;;764    				lc640_write_int(EE_T_PROC_PS_MODE,T_PROC_PS_MODE);
;;;765    				}
;;;766    			}			
;;;767    		}
;;;768    	}
;;;769    else if(RXBUFF[0]==53)	//время++
;;;770    	{
;;;771    	if((main_menu_mode==mmmIT)&&(work_stat==wsOFF))
;;;772    		{
;;;773    		if(TIME_VISION_PULT)
;;;774    			{
;;;775    			T_PROC_GS=(((T_PROC_GS/600L)+1L)*600L);
00057c  f44f7616          MOV      r6,#0x258
000580  682d              LDR      r5,[r5,#0]            ;690
000582  fb95f7f6          SDIV     r7,r5,r6
000586  9707              STR      r7,[sp,#0x1c]         ;623
000588  270a              MOVS     r7,#0xa               ;623
;;;776    			T_PROC_GS_block_cnt=10;
;;;777    			}
;;;778    		else
;;;779    			{
;;;780    			T_PROC_GS=(((T_PROC_GS/10L)+1L)*10L);
00058a  e001              B        |L5.1424|
                  |L5.1420|
00058c  e0a9              B        |L5.1762|
                  |L5.1422|
00058e  e012              B        |L5.1462|
                  |L5.1424|
000590  fb95f5f7          SDIV     r5,r5,r7
000594  9508              STR      r5,[sp,#0x20]         ;731
000596  4655              MOV      r5,r10                ;731
000598  2b35              CMP      r3,#0x35              ;769
00059a  682d              LDR      r5,[r5,#0]            ;731
;;;781    			T_PROC_GS_block_cnt=10;
;;;782    			}
;;;783    
;;;784    		if(T_PROC_GS>T_PROC_MAX)								 	//Если устанавливаем врямя процесса
;;;785    			{												//для источника тока больше чем 
;;;786    			T_PROC_GS=T_PROC_MAX+1;								//максимальное время процессов
;;;787    			if(T_PROC_GS_MODE!=1)								//(из главных установок) то 
;;;788    				{											//устанавливается режим непрерывной 
;;;789    				T_PROC_GS_MODE=1;								//работы(T_PROC_GS_MODE=1), при попытке
;;;790    				lc640_write_int(EE_T_PROC_GS_MODE,T_PROC_GS_MODE);	//вернуть время в разрешенный интеравал - 
;;;791    				}											//режим непрерывной работы снимается 
;;;792    			}												//(T_PROC_GS_MODE=0)
;;;793    	
;;;794    		else if(T_PROC_GS<30)
;;;795    			{
;;;796    			T_PROC_GS=29;
;;;797    			if(T_PROC_GS_MODE!=1)
;;;798    				{
;;;799    				T_PROC_GS_MODE=1;
;;;800    				lc640_write_int(EE_T_PROC_GS_MODE,T_PROC_GS_MODE);
;;;801    				}
;;;802    			}
;;;803    		else 
;;;804    			{
;;;805    			if(T_PROC_GS_MODE!=0)
;;;806    				{
;;;807    				T_PROC_GS_MODE=0;
;;;808    				lc640_write_int(EE_T_PROC_GS_MODE,T_PROC_GS_MODE);
;;;809    				}
;;;810    			}			
;;;811    		}
;;;812    	else if((main_menu_mode==mmmIN)&&(work_stat==wsOFF))
;;;813    		{
;;;814    		if(TIME_VISION_PULT)
;;;815    			{
;;;816    			T_PROC_PS=(((T_PROC_PS/600L)+1L)*600L);
00059c  fb95f6f6          SDIV     r6,r5,r6
;;;817    			T_PROC_PS_block_cnt=10;
;;;818    			}
;;;819    		else
;;;820    			{
;;;821    			T_PROC_PS=(((T_PROC_PS/10L)+1L)*10L);
0005a0  fb95f5f7          SDIV     r5,r5,r7
0005a4  d075              BEQ      |L5.1682|
;;;822    			T_PROC_PS_block_cnt=10;
;;;823    			}
;;;824    
;;;825    		if(T_PROC_PS>T_PROC_MAX)								 	//Если устанавливаем врямя процесса
;;;826    			{												//для источника тока больше чем 
;;;827    			T_PROC_PS=T_PROC_MAX+1;								//максимальное время процессов
;;;828    			if(T_PROC_PS_MODE!=1)								//(из главных установок) то 
;;;829    				{											//устанавливается режим непрерывной 
;;;830    				T_PROC_PS_MODE=1;								//работы(T_PROC_PS_MODE=1), при попытке
;;;831    				lc640_write_int(EE_T_PROC_PS_MODE,T_PROC_PS_MODE);	//вернуть время в разрешенный интеравал - 
;;;832    				}											//режим непрерывной работы снимается 
;;;833    			}												//(T_PROC_PS_MODE=0)
;;;834    	
;;;835    		else if(T_PROC_PS<30)
;;;836    			{
;;;837    			T_PROC_PS=29;
;;;838    			if(T_PROC_PS_MODE!=1)
;;;839    				{
;;;840    				T_PROC_PS_MODE=1;
;;;841    				lc640_write_int(EE_T_PROC_PS_MODE,T_PROC_PS_MODE);
;;;842    				}
;;;843    			}
;;;844    		else 
;;;845    			{
;;;846    			if(T_PROC_PS_MODE!=0)
;;;847    				{
;;;848    				T_PROC_PS_MODE=0;
;;;849    				lc640_write_int(EE_T_PROC_PS_MODE,T_PROC_PS_MODE);
;;;850    				}
;;;851    			}				
;;;852    		}
;;;853    	}
;;;854    
;;;855    else if(RXBUFF[0]==52)	//время-
0005a6  2b34              CMP      r3,#0x34
0005a8  d074              BEQ      |L5.1684|
;;;856    	{
;;;857    	if((main_menu_mode==mmmIT)&&(work_stat==wsOFF))
;;;858    		{
;;;859    		if(TIME_VISION_PULT)
;;;860    			{
;;;861    			T_PROC_GS=(((T_PROC_GS/60L)-1L)*60L);
;;;862    			T_PROC_GS_block_cnt=10;
;;;863    			}
;;;864    		else
;;;865    			{
;;;866    			T_PROC_GS--;
;;;867    			T_PROC_GS_block_cnt=10;
;;;868    			}
;;;869    
;;;870    			
;;;871    		if(T_PROC_GS>T_PROC_MAX)								 	//Если устанавливаем врямя процесса
;;;872    			{												//для источника тока больше чем 
;;;873    			T_PROC_GS=T_PROC_MAX+1;								//максимальное время процессов
;;;874    			if(T_PROC_GS_MODE!=1)								//(из главных установок) то 
;;;875    				{											//устанавливается режим непрерывной 
;;;876    				T_PROC_GS_MODE=1;								//работы(T_PROC_GS_MODE=1), при попытке
;;;877    				lc640_write_int(EE_T_PROC_GS_MODE,T_PROC_GS_MODE);	//вернуть время в разрешенный интеравал - 
;;;878    				}											//режим непрерывной работы снимается 
;;;879    			}												//(T_PROC_GS_MODE=0)
;;;880    	
;;;881    		else if(T_PROC_GS<30)
;;;882    			{
;;;883    			T_PROC_GS=29;
;;;884    			if(T_PROC_GS_MODE!=1)
;;;885    				{
;;;886    				T_PROC_GS_MODE=1;
;;;887    				lc640_write_int(EE_T_PROC_GS_MODE,T_PROC_GS_MODE);
;;;888    				}
;;;889    			}
;;;890    		else 
;;;891    			{
;;;892    			if(T_PROC_GS_MODE!=0)
;;;893    				{
;;;894    				T_PROC_GS_MODE=0;
;;;895    				lc640_write_int(EE_T_PROC_GS_MODE,T_PROC_GS_MODE);
;;;896    				}
;;;897    			}
;;;898    			
;;;899    		}
;;;900    	else if((main_menu_mode==mmmIN)&&(work_stat==wsOFF))
;;;901    		{
;;;902    		if(TIME_VISION_PULT)
;;;903    			{
;;;904    			T_PROC_PS=(((T_PROC_PS/60L)-1L)*60L);
;;;905    			T_PROC_PS_block_cnt=10;
;;;906    			}
;;;907    		else
;;;908    			{
;;;909    			T_PROC_PS--;
;;;910    			T_PROC_PS_block_cnt=10;
;;;911    			}
;;;912    
;;;913    		if(T_PROC_PS>T_PROC_MAX)								 	//Если устанавливаем врямя процесса
;;;914    			{												//для источника тока больше чем 
;;;915    			T_PROC_PS=T_PROC_MAX+1;								//максимальное время процессов
;;;916    			if(T_PROC_PS_MODE!=1)								//(из главных установок) то 
;;;917    				{											//устанавливается режим непрерывной 
;;;918    				T_PROC_PS_MODE=1;								//работы(T_PROC_PS_MODE=1), при попытке
;;;919    				lc640_write_int(EE_T_PROC_PS_MODE,T_PROC_PS_MODE);	//вернуть время в разрешенный интеравал - 
;;;920    				}											//режим непрерывной работы снимается 
;;;921    			}												//(T_PROC_PS_MODE=0)
;;;922    	
;;;923    		else if(T_PROC_PS<30)
;;;924    			{
;;;925    			T_PROC_PS=29;
;;;926    			if(T_PROC_PS_MODE!=1)
;;;927    				{
;;;928    				T_PROC_PS_MODE=1;
;;;929    				lc640_write_int(EE_T_PROC_PS_MODE,T_PROC_PS_MODE);
;;;930    				}
;;;931    			}
;;;932    		else 
;;;933    			{
;;;934    			if(T_PROC_PS_MODE!=0)
;;;935    				{
;;;936    				T_PROC_PS_MODE=0;
;;;937    				lc640_write_int(EE_T_PROC_PS_MODE,T_PROC_PS_MODE);
;;;938    				}
;;;939    			}			
;;;940    		}
;;;941    	}
;;;942    else if(RXBUFF[0]==54)	//время--
0005aa  2b36              CMP      r3,#0x36
0005ac  d073              BEQ      |L5.1686|
;;;943    	{
;;;944    	if((main_menu_mode==mmmIT)&&(work_stat==wsOFF))
;;;945    		{
;;;946    		if(TIME_VISION_PULT)
;;;947    			{
;;;948    			T_PROC_GS=(((T_PROC_GS/600L)-1L)*600L);
;;;949    			T_PROC_GS_block_cnt=10;
;;;950    			}
;;;951    		else
;;;952    			{
;;;953    			T_PROC_GS=(((T_PROC_GS/10L)-1L)*10L);
;;;954    			T_PROC_GS_block_cnt=10;
;;;955    			}
;;;956    
;;;957    		if(T_PROC_GS>T_PROC_MAX)								 	//Если устанавливаем врямя процесса
;;;958    			{												//для источника тока больше чем 
;;;959    			T_PROC_GS=T_PROC_MAX+1;								//максимальное время процессов
;;;960    			if(T_PROC_GS_MODE!=1)								//(из главных установок) то 
;;;961    				{											//устанавливается режим непрерывной 
;;;962    				T_PROC_GS_MODE=1;								//работы(T_PROC_GS_MODE=1), при попытке
;;;963    				lc640_write_int(EE_T_PROC_GS_MODE,T_PROC_GS_MODE);	//вернуть время в разрешенный интеравал - 
;;;964    				}											//режим непрерывной работы снимается 
;;;965    			}												//(T_PROC_GS_MODE=0)
;;;966    	
;;;967    		else if(T_PROC_GS<30)
;;;968    			{
;;;969    			T_PROC_GS=29;
;;;970    			if(T_PROC_GS_MODE!=1)
;;;971    				{
;;;972    				T_PROC_GS_MODE=1;
;;;973    				lc640_write_int(EE_T_PROC_GS_MODE,T_PROC_GS_MODE);
;;;974    				}
;;;975    			}
;;;976    		else 
;;;977    			{
;;;978    			if(T_PROC_GS_MODE!=0)
;;;979    				{
;;;980    				T_PROC_GS_MODE=0;
;;;981    				lc640_write_int(EE_T_PROC_GS_MODE,T_PROC_GS_MODE);
;;;982    				}
;;;983    			}
;;;984    						
;;;985    		}
;;;986    	else if((main_menu_mode==mmmIN)&&(work_stat==wsOFF))
;;;987    		{
;;;988    		if(TIME_VISION_PULT)
;;;989    			{
;;;990    			T_PROC_PS=(((T_PROC_PS/600L)-1L)*600L);
;;;991    			T_PROC_PS_block_cnt=10;
;;;992    			}
;;;993    		else
;;;994    			{
;;;995    			T_PROC_PS=(((T_PROC_PS/10L)-1L)*10L);
;;;996    			T_PROC_PS_block_cnt=10;
;;;997    			}
;;;998    
;;;999    		if(T_PROC_PS>T_PROC_MAX)								 	//Если устанавливаем врямя процесса
;;;1000   			{												//для источника тока больше чем 
;;;1001   			T_PROC_PS=T_PROC_MAX+1;								//максимальное время процессов
;;;1002   			if(T_PROC_PS_MODE!=1)								//(из главных установок) то 
;;;1003   				{											//устанавливается режим непрерывной 
;;;1004   				T_PROC_PS_MODE=1;								//работы(T_PROC_PS_MODE=1), при попытке
;;;1005   				lc640_write_int(EE_T_PROC_PS_MODE,T_PROC_PS_MODE);	//вернуть время в разрешенный интеравал - 
;;;1006   				}											//режим непрерывной работы снимается 
;;;1007   			}												//(T_PROC_PS_MODE=0)
;;;1008   	
;;;1009   		else if(T_PROC_PS<30)
;;;1010   			{
;;;1011   			T_PROC_PS=29;
;;;1012   			if(T_PROC_PS_MODE!=1)
;;;1013   				{
;;;1014   				T_PROC_PS_MODE=1;
;;;1015   				lc640_write_int(EE_T_PROC_PS_MODE,T_PROC_PS_MODE);
;;;1016   				}
;;;1017   			}
;;;1018   		else 
;;;1019   			{
;;;1020   			if(T_PROC_PS_MODE!=0)
;;;1021   				{
;;;1022   				T_PROC_PS_MODE=0;
;;;1023   				lc640_write_int(EE_T_PROC_PS_MODE,T_PROC_PS_MODE);
;;;1024   				}
;;;1025   			}	
;;;1026   		}
;;;1027   	}
;;;1028   
;;;1029   
;;;1030   else if(RXBUFF[0]==90)
0005ae  2b5a              CMP      r3,#0x5a
0005b0  d072              BEQ      |L5.1688|
0005b2  e19b              B        |L5.2284|
                  |L5.1460|
0005b4  e023              B        |L5.1534|
                  |L5.1462|
0005b6  4cb7              LDR      r4,|L5.2196|
0005b8  4db7              LDR      r5,|L5.2200|
0005ba  7840              LDRB     r0,[r0,#1]            ;602  ; RXBUFF
0005bc  7020              STRB     r0,[r4,#0]            ;602
0005be  7829              LDRB     r1,[r5,#0]            ;603  ; tumbler_stat_old
0005c0  4288              CMP      r0,r1                 ;603
0005c2  d00f              BEQ      |L5.1508|
0005c4  2801              CMP      r0,#1                 ;605
0005c6  d018              BEQ      |L5.1530|
0005c8  2100              MOVS     r1,#0                 ;609
                  |L5.1482|
0005ca  20ea              MOVS     r0,#0xea              ;609
0005cc  f7fffffe          BL       lc640_write_int
0005d0  48b2              LDR      r0,|L5.2204|
0005d2  f9b00000          LDRSH    r0,[r0,#0]            ;611  ; main_cnt
0005d6  2803              CMP      r0,#3                 ;611
0005d8  dd04              BLE      |L5.1508|
0005da  49a7              LDR      r1,|L5.2168|
0005dc  f881b000          STRB     r11,[r1,#0]           ;613
0005e0  f7fffffe          BL       restart_off
                  |L5.1508|
0005e4  7820              LDRB     r0,[r4,#0]            ;617  ; tumbler_stat
0005e6  e006              B        |L5.1526|
                  |L5.1512|
0005e8  e010              B        |L5.1548|
                  |L5.1514|
0005ea  e01d              B        |L5.1576|
                  |L5.1516|
0005ec  e020              B        |L5.1584|
                  |L5.1518|
0005ee  e026              B        |L5.1598|
                  |L5.1520|
0005f0  e027              B        |L5.1602|
                  |L5.1522|
0005f2  e029              B        |L5.1608|
                  |L5.1524|
0005f4  e02a              B        |L5.1612|
                  |L5.1526|
0005f6  7028              STRB     r0,[r5,#0]            ;617
0005f8  e178              B        |L5.2284|
                  |L5.1530|
0005fa  2101              MOVS     r1,#1                 ;607
0005fc  e7e5              B        |L5.1482|
                  |L5.1534|
0005fe  4550              CMP      r0,r10                ;622
000600  da01              BGE      |L5.1542|
000602  1c40              ADDS     r0,r0,#1              ;622
000604  e005              B        |L5.1554|
                  |L5.1542|
000606  f8ac8000          STRH     r8,[r12,#0]           ;623
00060a  e007              B        |L5.1564|
                  |L5.1548|
00060c  4550              CMP      r0,r10                ;631
00060e  da03              BGE      |L5.1560|
000610  1e40              SUBS     r0,r0,#1              ;631
                  |L5.1554|
000612  f8ac0000          STRH     r0,[r12,#0]           ;622
000616  e001              B        |L5.1564|
                  |L5.1560|
000618  f8ac5000          STRH     r5,[r12,#0]           ;632
                  |L5.1564|
00061c  4890              LDR      r0,|L5.2144|
00061e  f7fffffe          BL       gran
000622  f8a94000          STRH     r4,[r9,#0]            ;651
000626  e161              B        |L5.2284|
                  |L5.1576|
000628  4550              CMP      r0,r10                ;639
00062a  dbec              BLT      |L5.1542|
00062c  1d7f              ADDS     r7,r7,#5              ;640
00062e  e002              B        |L5.1590|
                  |L5.1584|
000630  4550              CMP      r0,r10                ;648
000632  dbf1              BLT      |L5.1560|
000634  1f7f              SUBS     r7,r7,#5              ;649
                  |L5.1590|
000636  eb070087          ADD      r0,r7,r7,LSL #2       ;649
00063a  0040              LSLS     r0,r0,#1              ;649
00063c  e7e9              B        |L5.1554|
                  |L5.1598|
00063e  1c6d              ADDS     r5,r5,#1              ;657
000640  e000              B        |L5.1604|
                  |L5.1602|
000642  1e6d              SUBS     r5,r5,#1              ;664
                  |L5.1604|
000644  8005              STRH     r5,[r0,#0]            ;657
000646  e006              B        |L5.1622|
                  |L5.1608|
000648  1c6d              ADDS     r5,r5,#1              ;671
00064a  e000              B        |L5.1614|
                  |L5.1612|
00064c  1e6d              SUBS     r5,r5,#1              ;678
                  |L5.1614|
00064e  eb050385          ADD      r3,r5,r5,LSL #2       ;678
000652  005b              LSLS     r3,r3,#1              ;678
000654  8003              STRH     r3,[r0,#0]            ;678
                  |L5.1622|
000656  4883              LDR      r0,|L5.2148|
000658  f7fffffe          BL       gran
00065c  803c              STRH     r4,[r7,#0]            ;680
00065e  e145              B        |L5.2284|
000660  e7ff              B        |L5.1634|
                  |L5.1634|
000662  9b01              LDR      r3,[sp,#4]            ;686
000664  b11b              CBZ      r3,|L5.1646|
000666  9902              LDR      r1,[sp,#8]            ;727
000668  2901              CMP      r1,#1                 ;727
00066a  d01d              BEQ      |L5.1704|
00066c  e13e              B        |L5.2284|
                  |L5.1646|
00066e  f1b80f00          CMP      r8,#0                 ;688
000672  d002              BEQ      |L5.1658|
000674  9b04              LDR      r3,[sp,#0x10]         ;690
000676  1c5b              ADDS     r3,r3,#1              ;690
000678  e05a              B        |L5.1840|
                  |L5.1658|
00067a  9b03              LDR      r3,[sp,#0xc]          ;695
00067c  1c5b              ADDS     r3,r3,#1              ;695
                  |L5.1662|
00067e  f8ce3000          STR      r3,[lr,#0]            ;695  ; T_PROC_GS
000682  e07a              B        |L5.1914|
                  |L5.1668|
000684  f8ce0000          STR      r0,[lr,#0]            ;702  ; T_PROC_GS
000688  487f              LDR      r0,|L5.2184|
00068a  2901              CMP      r1,#1                 ;702
00068c  d029              BEQ      |L5.1762|
00068e  4649              MOV      r1,r9                 ;962
000690  e007              B        |L5.1698|
                  |L5.1682|
000692  e027              B        |L5.1764|
                  |L5.1684|
000694  e041              B        |L5.1818|
                  |L5.1686|
000696  e060              B        |L5.1882|
                  |L5.1688|
000698  e09a              B        |L5.2000|
                  |L5.1690|
00069a  487b              LDR      r0,|L5.2184|
00069c  2900              CMP      r1,#0                 ;720
00069e  d020              BEQ      |L5.1762|
0006a0  4659              MOV      r1,r11                ;980
                  |L5.1698|
0006a2  8001              STRH     r1,[r0,#0]            ;704
0006a4  20ee              MOVS     r0,#0xee              ;705
0006a6  e01a              B        |L5.1758|
                  |L5.1704|
0006a8  9900              LDR      r1,[sp,#0]            ;727
0006aa  2900              CMP      r1,#0                 ;727
0006ac  d119              BNE      |L5.1762|
0006ae  f1b80f00          CMP      r8,#0                 ;729
0006b2  d002              BEQ      |L5.1722|
0006b4  9b05              LDR      r3,[sp,#0x14]         ;731
0006b6  1c5b              ADDS     r3,r3,#1              ;731
0006b8  e048              B        |L5.1868|
                  |L5.1722|
0006ba  1c69              ADDS     r1,r5,#1              ;736
0006bc  f8ca1000          STR      r1,[r10,#0]           ;737  ; T_PROC_PS
0006c0  e077              B        |L5.1970|
0006c2  bf00              NOP                            ;743
                  |L5.1732|
0006c4  f8ca0000          STR      r0,[r10,#0]           ;743  ; T_PROC_PS
0006c8  4871              LDR      r0,|L5.2192|
0006ca  2a01              CMP      r2,#1                 ;743
0006cc  d009              BEQ      |L5.1762|
0006ce  4649              MOV      r1,r9                 ;1004
0006d0  e003              B        |L5.1754|
                  |L5.1746|
0006d2  486f              LDR      r0,|L5.2192|
0006d4  2a00              CMP      r2,#0                 ;761
0006d6  d004              BEQ      |L5.1762|
0006d8  4659              MOV      r1,r11                ;1022
                  |L5.1754|
0006da  8001              STRH     r1,[r0,#0]            ;763
0006dc  20f0              MOVS     r0,#0xf0              ;764
                  |L5.1758|
0006de  f7fffffe          BL       lc640_write_int
                  |L5.1762|
0006e2  e103              B        |L5.2284|
                  |L5.1764|
0006e4  9b01              LDR      r3,[sp,#4]            ;771
0006e6  b11b              CBZ      r3,|L5.1776|
0006e8  9902              LDR      r1,[sp,#8]            ;812
0006ea  2901              CMP      r1,#1                 ;812
0006ec  d009              BEQ      |L5.1794|
0006ee  e0fd              B        |L5.2284|
                  |L5.1776|
0006f0  f1b80f00          CMP      r8,#0                 ;773
0006f4  d002              BEQ      |L5.1788|
0006f6  9a07              LDR      r2,[sp,#0x1c]         ;775
0006f8  1c52              ADDS     r2,r2,#1              ;775
0006fa  e039              B        |L5.1904|
                  |L5.1788|
0006fc  9b08              LDR      r3,[sp,#0x20]         ;780
0006fe  1c5b              ADDS     r3,r3,#1              ;780
000700  e048              B        |L5.1940|
                  |L5.1794|
000702  9900              LDR      r1,[sp,#0]            ;812
000704  bb71              CBNZ     r1,|L5.1892|
000706  f1b80f00          CMP      r8,#0                 ;814
00070a  d001              BEQ      |L5.1808|
00070c  1c76              ADDS     r6,r6,#1              ;816
00070e  e04b              B        |L5.1960|
                  |L5.1808|
000710  1c6d              ADDS     r5,r5,#1              ;821
000712  e059              B        |L5.1992|
                  |L5.1812|
000714  f8ca3000          STR      r3,[r10,#0]           ;731  ; T_PROC_PS
000718  e04b              B        |L5.1970|
                  |L5.1818|
00071a  9b01              LDR      r3,[sp,#4]            ;857
00071c  b11b              CBZ      r3,|L5.1830|
00071e  9902              LDR      r1,[sp,#8]            ;900
000720  2901              CMP      r1,#1                 ;900
000722  d00c              BEQ      |L5.1854|
000724  e0e2              B        |L5.2284|
                  |L5.1830|
000726  f1b80f00          CMP      r8,#0                 ;859
00072a  d005              BEQ      |L5.1848|
00072c  9b04              LDR      r3,[sp,#0x10]         ;861
00072e  1e5b              SUBS     r3,r3,#1              ;861
                  |L5.1840|
000730  ebc31303          RSB      r3,r3,r3,LSL #4       ;861
000734  009b              LSLS     r3,r3,#2              ;861
000736  e7a2              B        |L5.1662|
                  |L5.1848|
000738  9b03              LDR      r3,[sp,#0xc]          ;866
00073a  1e5b              SUBS     r3,r3,#1              ;866
00073c  e79f              B        |L5.1662|
                  |L5.1854|
00073e  9900              LDR      r1,[sp,#0]            ;900
000740  b981              CBNZ     r1,|L5.1892|
000742  f1b80f00          CMP      r8,#0                 ;902
000746  d005              BEQ      |L5.1876|
000748  9b05              LDR      r3,[sp,#0x14]         ;904
00074a  1e5b              SUBS     r3,r3,#1              ;904
                  |L5.1868|
00074c  ebc31303          RSB      r3,r3,r3,LSL #4       ;904
000750  009b              LSLS     r3,r3,#2              ;904
000752  e7df              B        |L5.1812|
                  |L5.1876|
000754  9b06              LDR      r3,[sp,#0x18]         ;909
000756  1e5b              SUBS     r3,r3,#1              ;909
000758  e7dc              B        |L5.1812|
                  |L5.1882|
00075a  9b01              LDR      r3,[sp,#4]            ;944
00075c  b11b              CBZ      r3,|L5.1894|
00075e  9902              LDR      r1,[sp,#8]            ;986
000760  2901              CMP      r1,#1                 ;986
000762  d01b              BEQ      |L5.1948|
                  |L5.1892|
000764  e0c2              B        |L5.2284|
                  |L5.1894|
000766  f1b80f00          CMP      r8,#0                 ;946
00076a  d011              BEQ      |L5.1936|
00076c  9a07              LDR      r2,[sp,#0x1c]         ;948
00076e  1e52              SUBS     r2,r2,#1              ;948
                  |L5.1904|
000770  f44f7516          MOV      r5,#0x258             ;775
000774  436a              MULS     r2,r5,r2              ;775
000776  f8ce2000          STR      r2,[lr,#0]            ;775  ; T_PROC_GS
                  |L5.1914|
00077a  4a49              LDR      r2,|L5.2208|
00077c  8014              STRH     r4,[r2,#0]            ;954
00077e  f8de3000          LDR      r3,[lr,#0]            ;699  ; T_PROC_GS
000782  4563              CMP      r3,r12                ;699
000784  f73faf7e          BGT      |L5.1668|
000788  2b1e              CMP      r3,#0x1e              ;967
00078a  da86              BGE      |L5.1690|
00078c  201d              MOVS     r0,#0x1d              ;969
00078e  e779              B        |L5.1668|
                  |L5.1936|
000790  9b08              LDR      r3,[sp,#0x20]         ;953
000792  1e5b              SUBS     r3,r3,#1              ;953
                  |L5.1940|
000794  eb030383          ADD      r3,r3,r3,LSL #2       ;953
000798  005b              LSLS     r3,r3,#1              ;953
00079a  e770              B        |L5.1662|
                  |L5.1948|
00079c  9900              LDR      r1,[sp,#0]            ;986
00079e  bb79              CBNZ     r1,|L5.2048|
0007a0  f1b80f00          CMP      r8,#0                 ;988
0007a4  d00f              BEQ      |L5.1990|
0007a6  1e76              SUBS     r6,r6,#1              ;990
                  |L5.1960|
0007a8  f44f7316          MOV      r3,#0x258             ;816
0007ac  435e              MULS     r6,r3,r6              ;816
0007ae  f8ca6000          STR      r6,[r10,#0]           ;816  ; T_PROC_PS
                  |L5.1970|
0007b2  493c              LDR      r1,|L5.2212|
0007b4  800c              STRH     r4,[r1,#0]            ;996
0007b6  f8da3000          LDR      r3,[r10,#0]           ;740  ; T_PROC_PS
0007ba  4563              CMP      r3,r12                ;740
0007bc  dc82              BGT      |L5.1732|
0007be  2b1e              CMP      r3,#0x1e              ;1009
0007c0  da87              BGE      |L5.1746|
0007c2  201d              MOVS     r0,#0x1d              ;1011
0007c4  e77e              B        |L5.1732|
                  |L5.1990|
0007c6  1e6d              SUBS     r5,r5,#1              ;995
                  |L5.1992|
0007c8  eb050385          ADD      r3,r5,r5,LSL #2       ;995
0007cc  005b              LSLS     r3,r3,#1              ;995
0007ce  e7a1              B        |L5.1812|
                  |L5.2000|
;;;1031   	{
;;;1032   	if(tumbler_stat==tsI)
0007d0  4c30              LDR      r4,|L5.2196|
;;;1033   		{
;;;1034   		if(work_stat!=wsGS)
;;;1035   			{
;;;1036   			if(SK_START==2)
;;;1037   				{
;;;1038   				if(SK_START_LEV)
0007d2  4d35              LDR      r5,|L5.2216|
;;;1039   					{
;;;1040   					if(sk_in_drv_stat==1)
0007d4  f8df80d4          LDR      r8,|L5.2220|
0007d8  7820              LDRB     r0,[r4,#0]            ;1032  ; tumbler_stat
;;;1041   						{
;;;1042   						return;
;;;1043   						}
;;;1044   					}
;;;1045   				if(!SK_START_LEV)
;;;1046   					{
;;;1047   					if(sk_in_drv_stat==-1)
;;;1048   						{
;;;1049   						return;
;;;1050   						}
;;;1051   					}
;;;1052   				}
;;;1053   			work_stat=wsGS;
;;;1054   			time_proc=0;
0007da  4e35              LDR      r6,|L5.2224|
;;;1055   			time_proc_remain=T_PROC_GS;
0007dc  4f35              LDR      r7,|L5.2228|
0007de  bb10              CBNZ     r0,|L5.2086|
0007e0  9800              LDR      r0,[sp,#0]            ;1034
0007e2  4925              LDR      r1,|L5.2168|
0007e4  2801              CMP      r0,#1                 ;1034
0007e6  d01a              BEQ      |L5.2078|
0007e8  4833              LDR      r0,|L5.2232|
0007ea  8800              LDRH     r0,[r0,#0]            ;1036  ; SK_START
0007ec  2802              CMP      r0,#2                 ;1036
0007ee  d10a              BNE      |L5.2054|
0007f0  4640              MOV      r0,r8                 ;1040
0007f2  882a              LDRH     r2,[r5,#0]            ;1038  ; SK_START_LEV
0007f4  f9b00000          LDRSH    r0,[r0,#0]            ;1040
0007f8  b11a              CBZ      r2,|L5.2050|
0007fa  2801              CMP      r0,#1                 ;1040
0007fc  d079              BEQ      |L5.2290|
0007fe  e002              B        |L5.2054|
                  |L5.2048|
000800  e06e              B        |L5.2272|
                  |L5.2050|
000802  1c40              ADDS     r0,r0,#1              ;1047
000804  d075              BEQ      |L5.2290|
                  |L5.2054|
000806  f8819000          STRB     r9,[r1,#0]            ;1053
00080a  f8c6b000          STR      r11,[r6,#0]           ;1054  ; time_proc
00080e  9903              LDR      r1,[sp,#0xc]
;;;1056   			index_set=0;
000810  6039              STR      r1,[r7,#0]  ; time_proc_remain
000812  492a              LDR      r1,|L5.2236|
000814  f881b004          STRB     r11,[r1,#4]
;;;1057   			restart_on_GS();
000818  f7fffffe          BL       restart_on_GS
00081c  e003              B        |L5.2086|
                  |L5.2078|
;;;1058   			}			
;;;1059   		else 
;;;1060   			{
;;;1061   			work_stat=wsOFF;
00081e  f881b000          STRB     r11,[r1,#0]
;;;1062   			restart_off();
000822  f7fffffe          BL       restart_off
                  |L5.2086|
;;;1063   			}
;;;1064   		}
;;;1065   
;;;1066   	if(tumbler_stat==tsU)
000826  7820              LDRB     r0,[r4,#0]  ; tumbler_stat
000828  2801              CMP      r0,#1
00082a  d15f              BNE      |L5.2284|
;;;1067   		{
;;;1068   		if(work_stat!=wsPS)
00082c  4812              LDR      r0,|L5.2168|
00082e  7801              LDRB     r1,[r0,#0]  ; work_stat
000830  2902              CMP      r1,#2
000832  d057              BEQ      |L5.2276|
;;;1069   			{
;;;1070   				{
;;;1071   				if(SK_START_LEV)
000834  8829              LDRH     r1,[r5,#0]  ; SK_START_LEV
000836  b121              CBZ      r1,|L5.2114|
;;;1072   					{
;;;1073   					if(sk_in_drv_stat==1)
000838  f8b81000          LDRH     r1,[r8,#0]  ; sk_in_drv_stat
00083c  2901              CMP      r1,#1
00083e  d058              BEQ      |L5.2290|
000840  e042              B        |L5.2248|
                  |L5.2114|
000842  e03d              B        |L5.2240|
                  |L5.2116|
                          DCD      0x40048000
                  |L5.2120|
                          DCD      ||.data||
                  |L5.2124|
                          DCD      can2_plazma
                  |L5.2128|
                          DCD      ||.bss||+0x124
                  |L5.2132|
                          DCD      I_MAX_IPS
                  |L5.2136|
                          DCD      I_MIN_IPS
                  |L5.2140|
                          DCD      I_ug_block_cnt
                  |L5.2144|
                          DCD      I_ug
                  |L5.2148|
                          DCD      U_up
                  |L5.2152|
                          DCD      U_MAX
                  |L5.2156|
                          DCD      U_MIN
                  |L5.2160|
                          DCD      U_up_block_cnt
                  |L5.2164|
                          DCD      TIME_VISION_PULT
                  |L5.2168|
                          DCD      work_stat
                  |L5.2172|
                          DCD      main_menu_mode
                  |L5.2176|
                          DCD      T_PROC_GS
                  |L5.2180|
                          DCD      T_PROC_MAX
                  |L5.2184|
                          DCD      T_PROC_GS_MODE
                  |L5.2188|
                          DCD      T_PROC_PS
                  |L5.2192|
                          DCD      T_PROC_PS_MODE
                  |L5.2196|
                          DCD      tumbler_stat
                  |L5.2200|
                          DCD      tumbler_stat_old
                  |L5.2204|
                          DCD      main_cnt
                  |L5.2208|
                          DCD      T_PROC_GS_block_cnt
                  |L5.2212|
                          DCD      T_PROC_PS_block_cnt
                  |L5.2216|
                          DCD      SK_START_LEV
                  |L5.2220|
                          DCD      sk_in_drv_stat
                  |L5.2224|
                          DCD      time_proc
                  |L5.2228|
                          DCD      time_proc_remain
                  |L5.2232|
                          DCD      SK_START
                  |L5.2236|
                          DCD      a_ind
                  |L5.2240|
;;;1074   						{
;;;1075   						return;
;;;1076   						}
;;;1077   					}
;;;1078   				if(!SK_START_LEV)
;;;1079   					{
;;;1080   					if(sk_in_drv_stat==-1)
0008c0  f9b81000          LDRSH    r1,[r8,#0]  ; sk_in_drv_stat
0008c4  1c49              ADDS     r1,r1,#1
0008c6  d014              BEQ      |L5.2290|
                  |L5.2248|
;;;1081   						{
;;;1082   						return;
;;;1083   						}
;;;1084   					}
;;;1085   				}
;;;1086   			work_stat=wsPS;
0008c8  2102              MOVS     r1,#2
0008ca  7001              STRB     r1,[r0,#0]
;;;1087   			time_proc=0;
;;;1088   			time_proc_remain=T_PROC_PS;
0008cc  f8c6b000          STR      r11,[r6,#0]  ; time_proc
0008d0  f8da1000          LDR      r1,[r10,#0]  ; T_PROC_PS
;;;1089   			index_set=0;
0008d4  6039              STR      r1,[r7,#0]  ; time_proc_remain
0008d6  49f8              LDR      r1,|L5.3256|
0008d8  f881b004          STRB     r11,[r1,#4]
;;;1090   			restart_on_PS();
0008dc  f7fffffe          BL       restart_on_PS
                  |L5.2272|
0008e0  e004              B        |L5.2284|
0008e2  e006              B        |L5.2290|
                  |L5.2276|
;;;1091   			}			
;;;1092   		else
;;;1093   			{
;;;1094   			work_stat=wsOFF;
0008e4  f880b000          STRB     r11,[r0,#0]
;;;1095   			restart_off();
0008e8  f7fffffe          BL       restart_off
                  |L5.2284|
;;;1096   			}
;;;1097   		}
;;;1098   	}
;;;1099   
;;;1100   CAN_IN_AN_end:
;;;1101   bIN=0;
0008ec  49f3              LDR      r1,|L5.3260|
0008ee  f881b007          STRB     r11,[r1,#7]
                  |L5.2290|
;;;1102   }
0008f2  b009              ADD      sp,sp,#0x24
0008f4  e56f              B        |L5.982|
;;;1103   //-----------------------------------------------
                          ENDP

                  can_in_an1 PROC
;;;1104   void can_in_an1(void)
0008f6  e92d5ff0          PUSH     {r4-r12,lr}
;;;1105   {
;;;1106   //char i;
;;;1107   //signed short temp_SS;
;;;1108   char slave_num;
;;;1109   
;;;1110   //if(!bIN2) goto CAN_IN_AN1_end; 
;;;1111   
;;;1112   //can_debug_plazma[1][2]++;
;;;1113   can_rotor[1]++;
0008fa  49f1              LDR      r1,|L5.3264|
;;;1114   
;;;1115   if((RXBUFF[0]==sub_ind1)&&(RXBUFF[1]==PUTID)&&(RXBUFF[2]==0xdd)&&(RXBUFF[3]==0xdd)&&(sub_ind==6))
;;;1116   	{
;;;1117   	mess_send(MESS2IND_HNDL,PARAM_U_AVT_GOOD,0,10);
0008fc  2500              MOVS     r5,#0
0008fe  f1a10450          SUB      r4,r1,#0x50           ;1115
000902  7848              LDRB     r0,[r1,#1]            ;1113  ; can_rotor
;;;1118   	can_reset_cnt=0;
000904  4eed              LDR      r6,|L5.3260|
000906  1c40              ADDS     r0,r0,#1              ;1113
000908  7048              STRB     r0,[r1,#1]            ;1113
00090a  48eb              LDR      r0,|L5.3256|
00090c  7821              LDRB     r1,[r4,#0]            ;1115  ; RXBUFF
00090e  f9902002          LDRSB    r2,[r0,#2]            ;1115  ; a_ind
000912  4291              CMP      r1,r2                 ;1115
000914  d112              BNE      |L5.2364|
000916  7861              LDRB     r1,[r4,#1]            ;1115  ; RXBUFF
000918  2991              CMP      r1,#0x91              ;1115
00091a  d10f              BNE      |L5.2364|
00091c  78a1              LDRB     r1,[r4,#2]            ;1115  ; RXBUFF
00091e  29dd              CMP      r1,#0xdd              ;1115
000920  d177              BNE      |L5.2578|
000922  78e1              LDRB     r1,[r4,#3]            ;1115  ; RXBUFF
000924  29dd              CMP      r1,#0xdd              ;1115
000926  d174              BNE      |L5.2578|
000928  7840              LDRB     r0,[r0,#1]            ;1115  ; a_ind
00092a  2806              CMP      r0,#6                 ;1115
00092c  d171              BNE      |L5.2578|
00092e  230a              MOVS     r3,#0xa               ;1117
000930  2200              MOVS     r2,#0                 ;1117
000932  21d9              MOVS     r1,#0xd9              ;1117
000934  20d7              MOVS     r0,#0xd7              ;1117
000936  f7fffffe          BL       mess_send
00093a  82b5              STRH     r5,[r6,#0x14]
                  |L5.2364|
;;;1119   	}
;;;1120   
;;;1121   
;;;1122   if((RXBUFF[1]==PUTTM1)&&((RXBUFF[0]&0x1f)>=0)&&((RXBUFF[0]&0x1f)<32))
00093c  7860              LDRB     r0,[r4,#1]  ; RXBUFF
;;;1123        {
;;;1124   	can_debug_plazma[1][2]++;
;;;1125        slave_num=RXBUFF[0]&0x1f;
;;;1126        
;;;1127        if((RXBUFF[0]&0xe0)==0)bps[slave_num]._device=dSRC;
00093e  4fe1              LDR      r7,|L5.3268|
000940  f04f0803          MOV      r8,#3
;;;1128        else if((RXBUFF[0]&0xe0)==0x40)bps[slave_num]._device=dINV;
000944  f04f0902          MOV      r9,#2
000948  f04f0a05          MOV      r10,#5
00094c  f04f0b0a          MOV      r11,#0xa              ;1117
000950  28da              CMP      r0,#0xda              ;1122
000952  d12f              BNE      |L5.2484|
000954  49da              LDR      r1,|L5.3264|
000956  310a              ADDS     r1,r1,#0xa            ;1124
000958  7b08              LDRB     r0,[r1,#0xc]          ;1124  ; can_debug_plazma
00095a  1c40              ADDS     r0,r0,#1              ;1124
00095c  7308              STRB     r0,[r1,#0xc]          ;1124
00095e  7821              LDRB     r1,[r4,#0]            ;1125  ; RXBUFF
000960  f001001f          AND      r0,r1,#0x1f           ;1125
000964  094a              LSRS     r2,r1,#5              ;1127
000966  d029              BEQ      |L5.2492|
000968  ebb91f51          CMP      r9,r1,LSR #5
00096c  d105              BNE      |L5.2426|
00096e  ebc002c0          RSB      r2,r0,r0,LSL #3
000972  eb020242          ADD      r2,r2,r2,LSL #1
000976  f807a022          STRB     r10,[r7,r2,LSL #2]
                  |L5.2426|
;;;1129        	
;;;1130   	bps[slave_num]._buff[0]=RXBUFF[2]; 
00097a  ebc001c0          RSB      r1,r0,r0,LSL #3
00097e  eb010141          ADD      r1,r1,r1,LSL #1
000982  eb070181          ADD      r1,r7,r1,LSL #2
000986  78a2              LDRB     r2,[r4,#2]  ; RXBUFF
000988  718a              STRB     r2,[r1,#6]
;;;1131   	bps[slave_num]._buff[1]=RXBUFF[3];
00098a  78e2              LDRB     r2,[r4,#3]  ; RXBUFF
00098c  71ca              STRB     r2,[r1,#7]
;;;1132   	bps[slave_num]._buff[2]=RXBUFF[4];
00098e  7922              LDRB     r2,[r4,#4]  ; RXBUFF
000990  720a              STRB     r2,[r1,#8]
;;;1133   	bps[slave_num]._buff[3]=RXBUFF[5];
000992  7962              LDRB     r2,[r4,#5]  ; RXBUFF
000994  724a              STRB     r2,[r1,#9]
;;;1134   	bps[slave_num]._buff[4]=RXBUFF[6];
000996  79a2              LDRB     r2,[r4,#6]  ; RXBUFF
000998  728a              STRB     r2,[r1,#0xa]
;;;1135   	bps[slave_num]._buff[5]=RXBUFF[7];
00099a  79e2              LDRB     r2,[r4,#7]  ; RXBUFF
00099c  72ca              STRB     r2,[r1,#0xb]
;;;1136   	
;;;1137   	bps[slave_num]._cnt=0;
00099e  70cd              STRB     r5,[r1,#3]
;;;1138   	bps[slave_num]._is_on_cnt=10;
0009a0  f881b034          STRB     r11,[r1,#0x34]
;;;1139   	
;;;1140    	if((bps[slave_num]._cnt==0)&&(bps[slave_num]._av&(1<<3))) avar_bps_hndl(slave_num,3,0);
0009a4  7849              LDRB     r1,[r1,#1]
0009a6  0709              LSLS     r1,r1,#28
0009a8  d503              BPL      |L5.2482|
0009aa  2200              MOVS     r2,#0
0009ac  2103              MOVS     r1,#3
0009ae  f7fffffe          BL       avar_bps_hndl
                  |L5.2482|
;;;1141   
;;;1142   	can_reset_cnt=0;
0009b2  82b5              STRH     r5,[r6,#0x14]
                  |L5.2484|
;;;1143        }
;;;1144   
;;;1145   if((RXBUFF[1]==PUTTM2)&&((RXBUFF[0]&0x1f)>=0)&&((RXBUFF[0]&0x1f)<32))
0009b4  7860              LDRB     r0,[r4,#1]  ; RXBUFF
0009b6  28db              CMP      r0,#0xdb
0009b8  d007              BEQ      |L5.2506|
0009ba  e02a              B        |L5.2578|
                  |L5.2492|
0009bc  ebc002c0          RSB      r2,r0,r0,LSL #3       ;1127
0009c0  eb020242          ADD      r2,r2,r2,LSL #1       ;1127
0009c4  f8078022          STRB     r8,[r7,r2,LSL #2]     ;1127
0009c8  e7d7              B        |L5.2426|
                  |L5.2506|
;;;1146        {
;;;1147        slave_num=RXBUFF[0]&0x1f;  
0009ca  7821              LDRB     r1,[r4,#0]  ; RXBUFF
0009cc  f001001f          AND      r0,r1,#0x1f
;;;1148   
;;;1149        if((RXBUFF[0]&0xe0)==0)bps[slave_num]._device=dSRC;
0009d0  094a              LSRS     r2,r1,#5
0009d2  d024              BEQ      |L5.2590|
;;;1150        else if((RXBUFF[0]&0xe0)==0x40)bps[slave_num]._device=dINV;
0009d4  ebb91f51          CMP      r9,r1,LSR #5
0009d8  d105              BNE      |L5.2534|
0009da  ebc002c0          RSB      r2,r0,r0,LSL #3
0009de  eb020242          ADD      r2,r2,r2,LSL #1
0009e2  f807a022          STRB     r10,[r7,r2,LSL #2]
                  |L5.2534|
;;;1151        
;;;1152   	bps[slave_num]._buff[6]=RXBUFF[2]; 
0009e6  ebc000c0          RSB      r0,r0,r0,LSL #3
0009ea  eb000040          ADD      r0,r0,r0,LSL #1
0009ee  eb070080          ADD      r0,r7,r0,LSL #2
0009f2  78a1              LDRB     r1,[r4,#2]  ; RXBUFF
0009f4  7301              STRB     r1,[r0,#0xc]
;;;1153   	bps[slave_num]._buff[7]=RXBUFF[3];
0009f6  78e1              LDRB     r1,[r4,#3]  ; RXBUFF
0009f8  7341              STRB     r1,[r0,#0xd]
;;;1154   	bps[slave_num]._buff[8]=RXBUFF[4];
0009fa  7921              LDRB     r1,[r4,#4]  ; RXBUFF
0009fc  7381              STRB     r1,[r0,#0xe]
;;;1155   	bps[slave_num]._buff[9]=RXBUFF[5];
0009fe  7961              LDRB     r1,[r4,#5]  ; RXBUFF
000a00  73c1              STRB     r1,[r0,#0xf]
;;;1156   	bps[slave_num]._buff[10]=RXBUFF[6];
000a02  79a1              LDRB     r1,[r4,#6]  ; RXBUFF
000a04  7401              STRB     r1,[r0,#0x10]
;;;1157   	bps[slave_num]._buff[11]=RXBUFF[7];
000a06  79e1              LDRB     r1,[r4,#7]  ; RXBUFF
000a08  7441              STRB     r1,[r0,#0x11]
;;;1158   	
;;;1159   	bps[slave_num]._cnt=0;
000a0a  70c5              STRB     r5,[r0,#3]
;;;1160   	bps[slave_num]._is_on_cnt=10; 
000a0c  f880b034          STRB     r11,[r0,#0x34]
;;;1161   
;;;1162      	//if((src[slave_num]._cnt==0)&&(src[slave_num]._av_net)) avar_s_hndl(slave_num,3,0); 
;;;1163   	can_reset_cnt=0;
000a10  82b5              STRH     r5,[r6,#0x14]
                  |L5.2578|
;;;1164        }
;;;1165   
;;;1166   
;;;1167   if( ((RXBUFF[0]&0x1f)==8)&&((RXBUFF[1])==PUTTM) )
000a12  7820              LDRB     r0,[r4,#0]  ; RXBUFF
000a14  f000021f          AND      r2,r0,#0x1f
000a18  2a08              CMP      r2,#8
000a1a  d007              BEQ      |L5.2604|
000a1c  e015              B        |L5.2634|
                  |L5.2590|
000a1e  ebc002c0          RSB      r2,r0,r0,LSL #3       ;1149
000a22  eb020242          ADD      r2,r2,r2,LSL #1       ;1149
000a26  f8078022          STRB     r8,[r7,r2,LSL #2]     ;1149
000a2a  e7dc              B        |L5.2534|
                  |L5.2604|
000a2c  7860              LDRB     r0,[r4,#1]  ; RXBUFF
000a2e  28de              CMP      r0,#0xde
000a30  d10b              BNE      |L5.2634|
;;;1168        {
;;;1169        adc_buff_ext_[0]=*((short*)&RXBUFF[2]);
000a32  48a5              LDR      r0,|L5.3272|
000a34  8861              LDRH     r1,[r4,#2]  ; RXBUFF
000a36  8001              STRH     r1,[r0,#0]
;;;1170        adc_buff_ext_[1]=*((short*)&RXBUFF[4]);
000a38  88a1              LDRH     r1,[r4,#4]  ; RXBUFF
000a3a  8041              STRH     r1,[r0,#2]
;;;1171        adc_buff_ext_[2]=*((short*)&RXBUFF[6]);
000a3c  88e1              LDRH     r1,[r4,#6]  ; RXBUFF
000a3e  8081              STRH     r1,[r0,#4]
;;;1172   //	if((adc_buff_ext_[2]>=-50) && (adc_buff_ext_[2]<=100))
;;;1173   		{
;;;1174   		t_ext_can=adc_buff_ext_[2];
000a40  48a2              LDR      r0,|L5.3276|
000a42  8001              STRH     r1,[r0,#0]
;;;1175   		t_ext_can_nd=0;
000a44  48a2              LDR      r0,|L5.3280|
000a46  7005              STRB     r5,[r0,#0]
;;;1176   		}
;;;1177   		t_ext_can=adc_buff_ext_[2];
;;;1178   	//ext_can_cnt++;
;;;1179   	can_reset_cnt=0;
000a48  82b5              STRH     r5,[r6,#0x14]
                  |L5.2634|
;;;1180        }
;;;1181   
;;;1182   if( ((RXBUFF[0]&0x1f)==9)&&((RXBUFF[1])==PUTTM) )
000a4a  2a09              CMP      r2,#9
000a4c  d10d              BNE      |L5.2666|
000a4e  7860              LDRB     r0,[r4,#1]  ; RXBUFF
000a50  28de              CMP      r0,#0xde
000a52  d10a              BNE      |L5.2666|
;;;1183        {
;;;1184        vvod_pos=RXBUFF[2];
000a54  499f              LDR      r1,|L5.3284|
000a56  78a0              LDRB     r0,[r4,#2]  ; RXBUFF
000a58  8008              STRH     r0,[r1,#0]
;;;1185   	ext_can_cnt=RXBUFF[3];
000a5a  499f              LDR      r1,|L5.3288|
000a5c  78e0              LDRB     r0,[r4,#3]  ; RXBUFF
000a5e  7008              STRB     r0,[r1,#0]
;;;1186   	if(ext_can_cnt<10)bRESET_EXT=0;
000a60  280a              CMP      r0,#0xa
000a62  d201              BCS      |L5.2664|
000a64  489d              LDR      r0,|L5.3292|
000a66  7005              STRB     r5,[r0,#0]
                  |L5.2664|
;;;1187   	can_reset_cnt=0;
000a68  82b5              STRH     r5,[r6,#0x14]
                  |L5.2666|
;;;1188        }
;;;1189   
;;;1190   if( ((RXBUFF[0]&0x1f)==10)&&((RXBUFF[1])==PUTTM) )
;;;1191        {
;;;1192        power_current=*((signed short*)&RXBUFF[2]);
000a6a  4b9d              LDR      r3,|L5.3296|
;;;1193        power_summary=*((signed long*)&RXBUFF[4]);
000a6c  4f9d              LDR      r7,|L5.3300|
000a6e  2a0a              CMP      r2,#0xa               ;1190
000a70  d107              BNE      |L5.2690|
000a72  7860              LDRB     r0,[r4,#1]            ;1190  ; RXBUFF
000a74  28de              CMP      r0,#0xde              ;1190
000a76  d104              BNE      |L5.2690|
000a78  8860              LDRH     r0,[r4,#2]            ;1192  ; RXBUFF
000a7a  8018              STRH     r0,[r3,#0]            ;1192
000a7c  6860              LDR      r0,[r4,#4]  ; RXBUFF
;;;1194   	//ext_can_cnt++;
;;;1195   	can_reset_cnt=0;
000a7e  6038              STR      r0,[r7,#0]  ; power_summary
000a80  82b5              STRH     r5,[r6,#0x14]
                  |L5.2690|
;;;1196        }
;;;1197   
;;;1198   
;;;1199   if( ((RXBUFF[0]&0x1f)==20)&&((RXBUFF[1])==PUTTM) )
;;;1200        {
;;;1201        eb2_data[0]=RXBUFF[2];
000a82  4899              LDR      r0,|L5.3304|
000a84  2a14              CMP      r2,#0x14              ;1199
000a86  d113              BNE      |L5.2736|
000a88  7861              LDRB     r1,[r4,#1]            ;1199  ; RXBUFF
000a8a  29de              CMP      r1,#0xde              ;1199
000a8c  d110              BNE      |L5.2736|
000a8e  78a1              LDRB     r1,[r4,#2]  ; RXBUFF
000a90  7001              STRB     r1,[r0,#0]
;;;1202   	eb2_data[1]=RXBUFF[3];
000a92  78e1              LDRB     r1,[r4,#3]  ; RXBUFF
000a94  7041              STRB     r1,[r0,#1]
;;;1203        eb2_data[2]=RXBUFF[4];
000a96  7921              LDRB     r1,[r4,#4]  ; RXBUFF
000a98  7081              STRB     r1,[r0,#2]
;;;1204   	eb2_data[3]=RXBUFF[5];
000a9a  7961              LDRB     r1,[r4,#5]  ; RXBUFF
000a9c  70c1              STRB     r1,[r0,#3]
;;;1205   	eb2_data[4]=RXBUFF[6];
000a9e  79a1              LDRB     r1,[r4,#6]  ; RXBUFF
000aa0  7101              STRB     r1,[r0,#4]
;;;1206   	eb2_data[5]=RXBUFF[7];
000aa2  79e1              LDRB     r1,[r4,#7]  ; RXBUFF
000aa4  7141              STRB     r1,[r0,#5]
;;;1207        power_current=*((signed short*)&RXBUFF[2]);
000aa6  8861              LDRH     r1,[r4,#2]  ; RXBUFF
000aa8  8019              STRH     r1,[r3,#0]
;;;1208        power_summary=*((signed long*)&RXBUFF[4]);
000aaa  6861              LDR      r1,[r4,#4]  ; RXBUFF
;;;1209   
;;;1210   	 can_reset_cnt=0;
000aac  6039              STR      r1,[r7,#0]  ; power_summary
000aae  82b5              STRH     r5,[r6,#0x14]
                  |L5.2736|
;;;1211        }
;;;1212   
;;;1213   if( ((RXBUFF[0]&0x1f)==21)&&((RXBUFF[1])==PUTTM) )
;;;1214        {
;;;1215        eb2_data[6]=RXBUFF[2];
;;;1216   	eb2_data[7]=RXBUFF[3];
;;;1217        eb2_data[8]=RXBUFF[4];
;;;1218   	eb2_data[9]=RXBUFF[5];
;;;1219   	eb2_data[10]=RXBUFF[6];
;;;1220   	eb2_data[11]=RXBUFF[7];
;;;1221   	eb2_data_short[6]=*((short*)&eb2_data[6]);
000ab0  498e              LDR      r1,|L5.3308|
000ab2  2a15              CMP      r2,#0x15              ;1213
000ab4  d111              BNE      |L5.2778|
000ab6  7863              LDRB     r3,[r4,#1]            ;1213  ; RXBUFF
000ab8  2bde              CMP      r3,#0xde              ;1213
000aba  d10e              BNE      |L5.2778|
000abc  78a3              LDRB     r3,[r4,#2]            ;1215  ; RXBUFF
000abe  7183              STRB     r3,[r0,#6]            ;1215
000ac0  78e3              LDRB     r3,[r4,#3]            ;1216  ; RXBUFF
000ac2  71c3              STRB     r3,[r0,#7]            ;1216
000ac4  7923              LDRB     r3,[r4,#4]            ;1217  ; RXBUFF
000ac6  7203              STRB     r3,[r0,#8]            ;1217
000ac8  7963              LDRB     r3,[r4,#5]            ;1218  ; RXBUFF
000aca  7243              STRB     r3,[r0,#9]            ;1218
000acc  79a3              LDRB     r3,[r4,#6]            ;1219  ; RXBUFF
000ace  7283              STRB     r3,[r0,#0xa]          ;1219
000ad0  79e3              LDRB     r3,[r4,#7]            ;1220  ; RXBUFF
000ad2  72c3              STRB     r3,[r0,#0xb]          ;1220
000ad4  88c3              LDRH     r3,[r0,#6]  ; eb2_data
000ad6  818b              STRH     r3,[r1,#0xc]
;;;1222   
;;;1223   	can_reset_cnt=0;
000ad8  82b5              STRH     r5,[r6,#0x14]
                  |L5.2778|
;;;1224        }
;;;1225   
;;;1226   if( ((RXBUFF[0]&0x1f)==22)&&((RXBUFF[1])==PUTTM) )
000ada  2a16              CMP      r2,#0x16
000adc  d115              BNE      |L5.2826|
000ade  7863              LDRB     r3,[r4,#1]  ; RXBUFF
000ae0  2bde              CMP      r3,#0xde
000ae2  d112              BNE      |L5.2826|
;;;1227        {
;;;1228        eb2_data[12]=RXBUFF[2];
000ae4  78a3              LDRB     r3,[r4,#2]  ; RXBUFF
000ae6  7303              STRB     r3,[r0,#0xc]
;;;1229   	eb2_data[13]=RXBUFF[3];
000ae8  78e3              LDRB     r3,[r4,#3]  ; RXBUFF
000aea  7343              STRB     r3,[r0,#0xd]
;;;1230        eb2_data[14]=RXBUFF[4];
000aec  7923              LDRB     r3,[r4,#4]  ; RXBUFF
000aee  7383              STRB     r3,[r0,#0xe]
;;;1231   	eb2_data[15]=RXBUFF[5];
000af0  7963              LDRB     r3,[r4,#5]  ; RXBUFF
000af2  73c3              STRB     r3,[r0,#0xf]
;;;1232   	eb2_data[16]=RXBUFF[6];
000af4  79a3              LDRB     r3,[r4,#6]  ; RXBUFF
000af6  7403              STRB     r3,[r0,#0x10]
;;;1233   	eb2_data[17]=RXBUFF[7];
000af8  79e3              LDRB     r3,[r4,#7]  ; RXBUFF
000afa  7443              STRB     r3,[r0,#0x11]
;;;1234   	eb2_data_short[0]=*((short*)&eb2_data[12]);
000afc  8983              LDRH     r3,[r0,#0xc]  ; eb2_data
000afe  800b              STRH     r3,[r1,#0]
;;;1235   	eb2_data_short[1]=*((short*)&eb2_data[14]);
000b00  89c3              LDRH     r3,[r0,#0xe]  ; eb2_data
000b02  804b              STRH     r3,[r1,#2]
;;;1236   	eb2_data_short[2]=*((short*)&eb2_data[16]);
000b04  8a03              LDRH     r3,[r0,#0x10]  ; eb2_data
000b06  808b              STRH     r3,[r1,#4]
;;;1237   
;;;1238   	can_reset_cnt=0;
000b08  82b5              STRH     r5,[r6,#0x14]
                  |L5.2826|
;;;1239        }
;;;1240   
;;;1241   if( ((RXBUFF[0]&0x1f)==23)&&((RXBUFF[1])==PUTTM) )
000b0a  2a17              CMP      r2,#0x17
000b0c  d115              BNE      |L5.2874|
000b0e  7862              LDRB     r2,[r4,#1]  ; RXBUFF
000b10  2ade              CMP      r2,#0xde
000b12  d112              BNE      |L5.2874|
;;;1242        {
;;;1243        eb2_data[18]=RXBUFF[2];
000b14  78a2              LDRB     r2,[r4,#2]  ; RXBUFF
000b16  7482              STRB     r2,[r0,#0x12]
;;;1244   	eb2_data[19]=RXBUFF[3];
000b18  78e2              LDRB     r2,[r4,#3]  ; RXBUFF
000b1a  74c2              STRB     r2,[r0,#0x13]
;;;1245        eb2_data[20]=RXBUFF[4];
000b1c  7922              LDRB     r2,[r4,#4]  ; RXBUFF
000b1e  7502              STRB     r2,[r0,#0x14]
;;;1246   	eb2_data[21]=RXBUFF[5];
000b20  7962              LDRB     r2,[r4,#5]  ; RXBUFF
000b22  7542              STRB     r2,[r0,#0x15]
;;;1247   	eb2_data[22]=RXBUFF[6];
000b24  79a2              LDRB     r2,[r4,#6]  ; RXBUFF
000b26  7582              STRB     r2,[r0,#0x16]
;;;1248   	eb2_data[23]=RXBUFF[7];
000b28  79e2              LDRB     r2,[r4,#7]  ; RXBUFF
000b2a  75c2              STRB     r2,[r0,#0x17]
;;;1249   	eb2_data_short[3]=*((short*)&eb2_data[18]);
000b2c  8a42              LDRH     r2,[r0,#0x12]  ; eb2_data
000b2e  80ca              STRH     r2,[r1,#6]
;;;1250   	eb2_data_short[4]=*((short*)&eb2_data[20]);
000b30  8a82              LDRH     r2,[r0,#0x14]  ; eb2_data
000b32  810a              STRH     r2,[r1,#8]
;;;1251   	eb2_data_short[5]=*((short*)&eb2_data[22]);
000b34  8ac0              LDRH     r0,[r0,#0x16]  ; eb2_data
000b36  8148              STRH     r0,[r1,#0xa]
;;;1252   
;;;1253   	can_reset_cnt=0;
000b38  82b5              STRH     r5,[r6,#0x14]
                  |L5.2874|
;;;1254        }
;;;1255   
;;;1256   //CAN_IN_AN1_end:
;;;1257   bIN2=0;
000b3a  7235              STRB     r5,[r6,#8]
;;;1258   }
000b3c  e8bd9ff0          POP      {r4-r12,pc}
;;;1259   
                          ENDP

                  CAN_ISR_Rx1 PROC
;;;1270   ***************************************************************************/ 
;;;1271   void CAN_ISR_Rx1( void )
000b40  b570              PUSH     {r4-r6,lr}
;;;1272   {
;;;1273   unsigned int buf;
;;;1274   unsigned int *pDest;
;;;1275   char temp;
;;;1276   char *ptr,j;
;;;1277   //can_cnt++;
;;;1278   
;;;1279   rotor_can[0]++;
000b42  485f              LDR      r0,|L5.3264|
;;;1280   
;;;1281     if (!(LPC_CAN1->RFS & 0xC0000400L))
000b44  4c6a              LDR      r4,|L5.3312|
000b46  3874              SUBS     r0,r0,#0x74           ;1279
000b48  8801              LDRH     r1,[r0,#0]            ;1279  ; rotor_can
000b4a  1c49              ADDS     r1,r1,#1              ;1279
000b4c  8001              STRH     r1,[r0,#0]            ;1279
000b4e  6a21              LDR      r1,[r4,#0x20]
000b50  4a68              LDR      r2,|L5.3316|
000b52  4211              TST      r1,r2
000b54  d135              BNE      |L5.3010|
;;;1282     { // 11-bit ID, no RTR, matched a filter
;;;1283   
;;;1284   rotor_can[1]++;
000b56  8841              LDRH     r1,[r0,#2]  ; rotor_can
000b58  1c49              ADDS     r1,r1,#1
000b5a  8041              STRH     r1,[r0,#2]
;;;1285       // initialize destination pointer
;;;1286       // filter number is in lower 10 bits of C1RFS
;;;1287       pDest = (unsigned int *) &(gFullCANList[(LPC_CAN1->RFS & 0x000003FFL)].Dat1);
000b5c  6a20              LDR      r0,[r4,#0x20]
;;;1288       
;;;1289       // calculate contents for first entry into FullCAN list
;;;1290       buf = LPC_CAN1->RFS & 0xC00F0000L; // mask FF, RTR and DLC
000b5e  6a22              LDR      r2,[r4,#0x20]
000b60  f3c00009          UBFX     r0,r0,#0,#10          ;1287
000b64  eb000140          ADD      r1,r0,r0,LSL #1       ;1287
000b68  4855              LDR      r0,|L5.3264|
000b6a  3868              SUBS     r0,r0,#0x68           ;1287
000b6c  eb000181          ADD      r1,r0,r1,LSL #2       ;1287
000b70  4b61              LDR      r3,|L5.3320|
000b72  401a              ANDS     r2,r2,r3
;;;1291       buf |= 0x01002000L; // set semaphore to 01b and CAN port to 1
000b74  4b61              LDR      r3,|L5.3324|
000b76  431a              ORRS     r2,r2,r3
;;;1292       buf |= LPC_CAN1->RID & 0x000007FFL; // get CAN message ID
000b78  6a63              LDR      r3,[r4,#0x24]
000b7a  f3c3030a          UBFX     r3,r3,#0,#11
000b7e  4313              ORRS     r3,r3,r2
;;;1293   
;;;1294       // now copy entire message to FullCAN list
;;;1295       *pDest = buf; 
;;;1296       pDest++; // set to gFullCANList[(C1RFS & 0x000003FFL)].DatA
;;;1297       *pDest = LPC_CAN1->RDA; 
000b80  6aa2              LDR      r2,[r4,#0x28]
;;;1298       pDest++; // set to gFullCANList[(C1RFS & 0x000003FFL)].DatB
;;;1299       *pDest = LPC_CAN1->RDB; 
000b82  604a              STR      r2,[r1,#4]
000b84  6ae2              LDR      r2,[r4,#0x2c]
;;;1300   
;;;1301       // now set the sempahore to complete
;;;1302       buf |= 0x03000000L; // set semaphore to 11b
000b86  608a              STR      r2,[r1,#8]
000b88  f0437240          ORR      r2,r3,#0x3000000
;;;1303       pDest -= 2; // set to gFullCANList[(C1RFS & 0x000003FFL)].Dat1
;;;1304       *pDest = buf; 
;;;1305       
;;;1306   	temp=(char)gFullCANList[0].DatA;
000b8c  600a              STR      r2,[r1,#0]
000b8e  6841              LDR      r1,[r0,#4]  ; gFullCANList
000b90  b2ca              UXTB     r2,r1
;;;1307   	if(temp==0x30) bR=0;
000b92  494a              LDR      r1,|L5.3260|
000b94  2a30              CMP      r2,#0x30
000b96  d009              BEQ      |L5.2988|
;;;1308   	else bR++;
000b98  798a              LDRB     r2,[r1,#6]  ; bR
000b9a  1c52              ADDS     r2,r2,#1
                  |L5.2972|
000b9c  718a              STRB     r2,[r1,#6]
;;;1309   	
;;;1310   	temp=(char)(((gFullCANList[0].Dat1)>>16)&0x0f); 
000b9e  c802              LDM      r0!,{r1}  ; gFullCANList
;;;1311        
;;;1312        ptr=(char*)(&gFullCANList[0].DatA);
;;;1313   	
;;;1314   	for(j=0;j<temp;j++)
;;;1315   		{
;;;1316   		RXBUFF[j]=*ptr;
000ba0  4b47              LDR      r3,|L5.3264|
000ba2  f3c14203          UBFX     r2,r1,#16,#4          ;1310
000ba6  2100              MOVS     r1,#0                 ;1314
000ba8  3b50              SUBS     r3,r3,#0x50
000baa  e006              B        |L5.3002|
                  |L5.2988|
000bac  2200              MOVS     r2,#0                 ;1307
000bae  e7f5              B        |L5.2972|
                  |L5.2992|
000bb0  f8105b01          LDRB     r5,[r0],#1
000bb4  545d              STRB     r5,[r3,r1]
000bb6  1c49              ADDS     r1,r1,#1              ;1314
000bb8  b2c9              UXTB     r1,r1                 ;1314
                  |L5.3002|
000bba  4291              CMP      r1,r2                 ;1314
000bbc  d3f8              BCC      |L5.2992|
;;;1317   		ptr++;
;;;1318   		}
;;;1319   	can_in_an1();
000bbe  f7fffffe          BL       can_in_an1
                  |L5.3010|
;;;1320   	    
;;;1321       
;;;1322     }
;;;1323   
;;;1324     LPC_CAN1->CMR = 0x04; // release receive buffer
000bc2  2004              MOVS     r0,#4
000bc4  6060              STR      r0,[r4,#4]
;;;1325   }
000bc6  bd70              POP      {r4-r6,pc}
;;;1326   
                          ENDP

                  CAN_ISR_Rx2 PROC
;;;1332   ***************************************************************************/ 
;;;1333   void CAN_ISR_Rx2( void ) 
000bc8  b510              PUSH     {r4,lr}
;;;1334   {
;;;1335   unsigned int buf;
;;;1336   unsigned int *pDest;
;;;1337   char temp;
;;;1338   //char /**ptr,*/j;
;;;1339   //can_cnt++;
;;;1340   
;;;1341   //rotor_can[0]++;
;;;1342   //can_debug_plazma[0][0]++;
;;;1343   //if(C1ICR & 0x00000001L)
;;;1344   //	{
;;;1345   //	can_debug_plazma[0][0]++;
;;;1346   
;;;1347   
;;;1348   
;;;1349   	if (!(LPC_CAN2->RFS & 0xC0000400L))
000bca  4c4d              LDR      r4,|L5.3328|
000bcc  6a20              LDR      r0,[r4,#0x20]
000bce  4949              LDR      r1,|L5.3316|
000bd0  4208              TST      r0,r1
000bd2  d13c              BNE      |L5.3150|
;;;1350       		{ // 11-bit ID, no RTR, matched a filter
;;;1351   			
;;;1352       		//rotor_can[1]++;
;;;1353       		// initialize destination pointer
;;;1354       		// filter number is in lower 10 bits of C1RFS
;;;1355   			//plazma_can4=(char)((LPC_CAN2->RFS>>16) & 0x000000FFL);
;;;1356       		pDest = (unsigned int *) &(gFullCANList[(LPC_CAN2->RFS & 0x000003FFL)].Dat1);
000bd4  6a20              LDR      r0,[r4,#0x20]
000bd6  493a              LDR      r1,|L5.3264|
000bd8  f3c00009          UBFX     r0,r0,#0,#10
000bdc  eb000040          ADD      r0,r0,r0,LSL #1
000be0  3968              SUBS     r1,r1,#0x68
000be2  eb010080          ADD      r0,r1,r0,LSL #2
;;;1357       
;;;1358   /*			plazma_can_pal[plazma_can_pal_index]=(char)(LPC_CAN2->RDA);
;;;1359   			plazma_can_pal_index++;
;;;1360   			plazma_can_pal[plazma_can_pal_index]=(char)((LPC_CAN2->RDA)>>8);
;;;1361   			plazma_can_pal_index++;
;;;1362   			plazma_can_pal[plazma_can_pal_index]=(char)((LPC_CAN2->RDA)>>16);
;;;1363   			plazma_can_pal_index++;
;;;1364   			plazma_can_pal[plazma_can_pal_index]=(char)((LPC_CAN2->RDA)>>24);
;;;1365   			plazma_can_pal_index++;
;;;1366   			plazma_can_pal[plazma_can_pal_index]=(char)(LPC_CAN2->RDB);
;;;1367   			plazma_can_pal_index++;
;;;1368   			plazma_can_pal[plazma_can_pal_index]=(char)((LPC_CAN2->RDB)>>8);
;;;1369   			plazma_can_pal_index++;
;;;1370   			plazma_can_pal[plazma_can_pal_index]=(char)((LPC_CAN2->RDB)>>16);
;;;1371   			plazma_can_pal_index++;
;;;1372   			plazma_can_pal[plazma_can_pal_index]=(char)((LPC_CAN2->RDB)>>24);
;;;1373   			plazma_can_pal_index++; */
;;;1374   
;;;1375       		// calculate contents for first entry into FullCAN list
;;;1376       		buf = LPC_CAN2->RFS & 0xC00F0000L; // mask FF, RTR and DLC
000be6  6a21              LDR      r1,[r4,#0x20]
000be8  4a43              LDR      r2,|L5.3320|
000bea  4011              ANDS     r1,r1,r2
;;;1377       		buf |= 0x01002000L; // set semaphore to 01b and CAN port to 1
000bec  4a43              LDR      r2,|L5.3324|
000bee  4311              ORRS     r1,r1,r2
;;;1378       		buf |= LPC_CAN2->RID & 0x000007FFL; // get CAN message ID
000bf0  6a62              LDR      r2,[r4,#0x24]
000bf2  f3c2020a          UBFX     r2,r2,#0,#11
000bf6  430a              ORRS     r2,r2,r1
;;;1379   
;;;1380       		// now copy entire message to FullCAN list
;;;1381       		*pDest = buf; 
;;;1382       		pDest++; // set to gFullCANList[(C1RFS & 0x000003FFL)].DatA
;;;1383       		*pDest = LPC_CAN2->RDA;
000bf8  6aa1              LDR      r1,[r4,#0x28]
;;;1384   			//plazma_can4=(char)LPC_CAN2->RDA; 
;;;1385       		pDest++; // set to gFullCANList[(C1RFS & 0x000003FFL)].DatB
;;;1386       		*pDest = LPC_CAN2->RDB; 
000bfa  6041              STR      r1,[r0,#4]
000bfc  6ae1              LDR      r1,[r4,#0x2c]
;;;1387   
;;;1388       		// now set the sempahore to complete
;;;1389       		buf |= 0x03000000L; // set semaphore to 11b
000bfe  6081              STR      r1,[r0,#8]
000c00  f0427140          ORR      r1,r2,#0x3000000
;;;1390       		pDest -= 2; // set to gFullCANList[(C1RFS & 0x000003FFL)].Dat1
;;;1391       		*pDest = buf; 
;;;1392       
;;;1393   		//temp=(char)gFullCANList[0].DatA;
;;;1394   		temp=(char)(LPC_CAN2->RDA);
000c04  6001              STR      r1,[r0,#0]
000c06  6aa0              LDR      r0,[r4,#0x28]
;;;1395   		if(temp==0x30)
;;;1396   			{
;;;1397   			 bR=0;
000c08  492c              LDR      r1,|L5.3260|
000c0a  b2c0              UXTB     r0,r0                 ;1394
000c0c  2830              CMP      r0,#0x30              ;1395
000c0e  d021              BEQ      |L5.3156|
;;;1398   			 }
;;;1399   		else bR++;
000c10  7988              LDRB     r0,[r1,#6]  ; bR
000c12  1c40              ADDS     r0,r0,#1
                  |L5.3092|
000c14  7188              STRB     r0,[r1,#6]
;;;1400   	
;;;1401   		//temp=(char)(((gFullCANList[0].Dat1)>>16)&0x0f); 
;;;1402        
;;;1403        	//ptr=(char*)(&gFullCANList[0].DatA);
;;;1404   	
;;;1405   
;;;1406   			RXBUFF[0]=(char)(LPC_CAN2->RDA);
000c16  6aa2              LDR      r2,[r4,#0x28]
000c18  4829              LDR      r0,|L5.3264|
000c1a  3850              SUBS     r0,r0,#0x50
000c1c  7002              STRB     r2,[r0,#0]
;;;1407   			RXBUFF[1]=(char)((LPC_CAN2->RDA)>>8);
000c1e  6aa2              LDR      r2,[r4,#0x28]
000c20  0a12              LSRS     r2,r2,#8
000c22  7042              STRB     r2,[r0,#1]
;;;1408   			RXBUFF[2]=(char)((LPC_CAN2->RDA)>>16);
000c24  6aa2              LDR      r2,[r4,#0x28]
000c26  0c12              LSRS     r2,r2,#16
000c28  7082              STRB     r2,[r0,#2]
;;;1409   			RXBUFF[3]=(char)((LPC_CAN2->RDA)>>24);
000c2a  6aa2              LDR      r2,[r4,#0x28]
000c2c  0e12              LSRS     r2,r2,#24
000c2e  70c2              STRB     r2,[r0,#3]
;;;1410   			RXBUFF[4]=(char)(LPC_CAN2->RDB);
000c30  6ae2              LDR      r2,[r4,#0x2c]
000c32  7102              STRB     r2,[r0,#4]
;;;1411   			RXBUFF[5]=(char)((LPC_CAN2->RDB)>>8);
000c34  6ae2              LDR      r2,[r4,#0x2c]
000c36  0a12              LSRS     r2,r2,#8
000c38  7142              STRB     r2,[r0,#5]
;;;1412   			RXBUFF[6]=(char)((LPC_CAN2->RDB)>>16);
000c3a  6ae2              LDR      r2,[r4,#0x2c]
000c3c  0c12              LSRS     r2,r2,#16
000c3e  7182              STRB     r2,[r0,#6]
;;;1413   			RXBUFF[7]=(char)((LPC_CAN2->RDB)>>24);
000c40  6ae2              LDR      r2,[r4,#0x2c]
000c42  0e12              LSRS     r2,r2,#24
000c44  71c2              STRB     r2,[r0,#7]
;;;1414   	
;;;1415   	
;;;1416   	
;;;1417   			bIN=1;
000c46  2001              MOVS     r0,#1
000c48  71c8              STRB     r0,[r1,#7]
;;;1418     			//rotor_can[3]++;
;;;1419     			can_in_an2();
000c4a  f7fffffe          BL       can_in_an2
                  |L5.3150|
;;;1420   			
;;;1421       
;;;1422     		}
;;;1423   
;;;1424   LPC_CAN2->CMR = 0x04; // release receive buffer
000c4e  2004              MOVS     r0,#4
000c50  6060              STR      r0,[r4,#4]
;;;1425   }
000c52  bd10              POP      {r4,pc}
                  |L5.3156|
000c54  2000              MOVS     r0,#0                 ;1397
000c56  e7dd              B        |L5.3092|
;;;1426   /**************************************************************************
                          ENDP

                  can_isr_tx1 PROC
;;;1432   
;;;1433   void can_isr_tx1 (void) 
000c58  4a18              LDR      r2,|L5.3260|
;;;1434   {
;;;1435   //unsigned int buf;
;;;1436   //unsigned int *pDest;
;;;1437   char temp;
;;;1438   //char *ptr,j;
;;;1439   //plazma_can2++;
;;;1440   
;;;1441   can_tx_cnt++;
000c5a  7a50              LDRB     r0,[r2,#9]  ; can_tx_cnt
000c5c  1c40              ADDS     r0,r0,#1
000c5e  7250              STRB     r0,[r2,#9]
;;;1442   
;;;1443   rotor_can[5]++;
000c60  4817              LDR      r0,|L5.3264|
000c62  3874              SUBS     r0,r0,#0x74
000c64  8941              LDRH     r1,[r0,#0xa]  ; rotor_can
000c66  1c49              ADDS     r1,r1,#1
000c68  8141              STRH     r1,[r0,#0xa]
;;;1444   
;;;1445   if(ptr_can1_tx_wr!=ptr_can1_tx_rd)
000c6a  7893              LDRB     r3,[r2,#2]  ; ptr_can1_tx_wr
000c6c  78d0              LDRB     r0,[r2,#3]  ; ptr_can1_tx_rd
;;;1446   	{
;;;1447   	LPC_CAN1->TFI1=can1_info[ptr_can1_tx_rd];
000c6e  4920              LDR      r1,|L5.3312|
000c70  4283              CMP      r3,r0                 ;1445
000c72  d01c              BEQ      |L5.3246|
000c74  4b23              LDR      r3,|L5.3332|
000c76  f8533020          LDR      r3,[r3,r0,LSL #2]
000c7a  630b              STR      r3,[r1,#0x30]
;;;1448        LPC_CAN1->TID1=can1_id[ptr_can1_tx_rd];
000c7c  4b21              LDR      r3,|L5.3332|
000c7e  3320              ADDS     r3,r3,#0x20
000c80  f8533020          LDR      r3,[r3,r0,LSL #2]
000c84  634b              STR      r3,[r1,#0x34]
;;;1449        LPC_CAN1->TDA1=can1_data[ptr_can1_tx_rd];
000c86  4b1f              LDR      r3,|L5.3332|
000c88  3340              ADDS     r3,r3,#0x40
000c8a  f8533020          LDR      r3,[r3,r0,LSL #2]
000c8e  638b              STR      r3,[r1,#0x38]
;;;1450        LPC_CAN1->TDB1=can1_datb[ptr_can1_tx_rd];
000c90  4b1c              LDR      r3,|L5.3332|
000c92  3360              ADDS     r3,r3,#0x60
000c94  f8533020          LDR      r3,[r3,r0,LSL #2]
000c98  63cb              STR      r3,[r1,#0x3c]
;;;1451        LPC_CAN1->CMR=0x00000021;
000c9a  2321              MOVS     r3,#0x21
000c9c  604b              STR      r3,[r1,#4]
;;;1452        ptr_can1_tx_rd++;
000c9e  1c40              ADDS     r0,r0,#1
000ca0  b2c0              UXTB     r0,r0
000ca2  70d0              STRB     r0,[r2,#3]
;;;1453        if(ptr_can1_tx_rd>=8)ptr_can1_tx_rd=0;
000ca4  2808              CMP      r0,#8
000ca6  d304              BCC      |L5.3250|
000ca8  2000              MOVS     r0,#0
000caa  70d0              STRB     r0,[r2,#3]
000cac  e001              B        |L5.3250|
                  |L5.3246|
;;;1454   	}
;;;1455   else bOUT_FREE=1;
000cae  2001              MOVS     r0,#1
000cb0  7010              STRB     r0,[r2,#0]
                  |L5.3250|
;;;1456   temp=LPC_CAN1->ICR;
000cb2  68c8              LDR      r0,[r1,#0xc]
                  |L5.3252|
;;;1457   if(temp)temp=0;
;;;1458   }
000cb4  4770              BX       lr
000cb6  0000              DCW      0x0000
                  |L5.3256|
                          DCD      a_ind
                  |L5.3260|
                          DCD      ||.data||
                  |L5.3264|
                          DCD      ||.bss||+0x174
                  |L5.3268|
                          DCD      bps
                  |L5.3272|
                          DCD      adc_buff_ext_
                  |L5.3276|
                          DCD      t_ext_can
                  |L5.3280|
                          DCD      t_ext_can_nd
                  |L5.3284|
                          DCD      vvod_pos
                  |L5.3288|
                          DCD      ext_can_cnt
                  |L5.3292|
                          DCD      bRESET_EXT
                  |L5.3296|
                          DCD      power_current
                  |L5.3300|
                          DCD      power_summary
                  |L5.3304|
                          DCD      eb2_data
                  |L5.3308|
                          DCD      eb2_data_short
                  |L5.3312|
                          DCD      0x40044000
                  |L5.3316|
                          DCD      0xc0000400
                  |L5.3320|
                          DCD      0xc00f0000
                  |L5.3324|
                          DCD      0x01002000
                  |L5.3328|
                          DCD      0x40048000
                  |L5.3332|
                          DCD      ||.bss||
                          ENDP

                  can_isr_tx2 PROC
;;;1460   /***************************************************************************/
;;;1461   void can_isr_tx2 (void) 
000d08  4a78              LDR      r2,|L5.3820|
;;;1462   {
;;;1463   char temp;
;;;1464   can2_tx_cnt++;
;;;1465   
;;;1466   //=ptr_can2_tx_wr;
;;;1467   
;;;1468   if(ptr_can2_tx_wr!=ptr_can2_tx_rd)
;;;1469   	{
;;;1470   	LPC_CAN2->TFI1=can2_info[ptr_can2_tx_rd];
000d0a  4979              LDR      r1,|L5.3824|
000d0c  8ad0              LDRH     r0,[r2,#0x16]         ;1464  ; can2_tx_cnt
000d0e  1c40              ADDS     r0,r0,#1              ;1464
000d10  82d0              STRH     r0,[r2,#0x16]         ;1464
000d12  7913              LDRB     r3,[r2,#4]            ;1468  ; ptr_can2_tx_wr
000d14  7950              LDRB     r0,[r2,#5]            ;1468  ; ptr_can2_tx_rd
000d16  4283              CMP      r3,r0                 ;1468
000d18  d01c              BEQ      |L5.3412|
000d1a  4b76              LDR      r3,|L5.3828|
000d1c  f8533020          LDR      r3,[r3,r0,LSL #2]
000d20  630b              STR      r3,[r1,#0x30]
;;;1471        LPC_CAN2->TID1=can2_id[ptr_can2_tx_rd];
000d22  4b74              LDR      r3,|L5.3828|
000d24  3320              ADDS     r3,r3,#0x20
000d26  f8533020          LDR      r3,[r3,r0,LSL #2]
000d2a  634b              STR      r3,[r1,#0x34]
;;;1472        LPC_CAN2->TDA1=can2_data[ptr_can2_tx_rd];
000d2c  4b71              LDR      r3,|L5.3828|
000d2e  3340              ADDS     r3,r3,#0x40
000d30  f8533020          LDR      r3,[r3,r0,LSL #2]
000d34  638b              STR      r3,[r1,#0x38]
;;;1473        LPC_CAN2->TDB1=can2_datb[ptr_can2_tx_rd];
000d36  4b6f              LDR      r3,|L5.3828|
000d38  3360              ADDS     r3,r3,#0x60
000d3a  f8533020          LDR      r3,[r3,r0,LSL #2]
000d3e  63cb              STR      r3,[r1,#0x3c]
;;;1474        LPC_CAN2->CMR=0x00000021;
000d40  2321              MOVS     r3,#0x21
000d42  604b              STR      r3,[r1,#4]
;;;1475        ptr_can2_tx_rd++;
000d44  1c40              ADDS     r0,r0,#1
000d46  b2c0              UXTB     r0,r0
000d48  7150              STRB     r0,[r2,#5]
;;;1476        if(ptr_can2_tx_rd>=8)ptr_can2_tx_rd=0;
000d4a  2808              CMP      r0,#8
000d4c  d304              BCC      |L5.3416|
000d4e  2000              MOVS     r0,#0
000d50  7150              STRB     r0,[r2,#5]
000d52  e001              B        |L5.3416|
                  |L5.3412|
;;;1477   	}
;;;1478   else bOUT_FREE2=1;
000d54  2001              MOVS     r0,#1
000d56  7050              STRB     r0,[r2,#1]
                  |L5.3416|
;;;1479   temp=LPC_CAN2->ICR;
000d58  68c8              LDR      r0,[r1,#0xc]
;;;1480   if(temp)temp=0;
;;;1481   }
000d5a  e7ab              B        |L5.3252|
;;;1482   
                          ENDP

                  can1_init PROC
;;;1486   ***************************************************************************/ 
;;;1487   short can1_init (unsigned int can_btr)
000d5c  4966              LDR      r1,|L5.3832|
;;;1488   {
000d5e  b510              PUSH     {r4,lr}
;;;1489   LPC_SC->PCONP |= (1<<13);  /* Enable CAN1 and CAN2 clock */
000d60  680a              LDR      r2,[r1,#0]
000d62  f4425200          ORR      r2,r2,#0x2000
000d66  600a              STR      r2,[r1,#0]
;;;1490   
;;;1491   LPC_PINCON->PINSEL0 &= ~0x0000000F;  /* CAN1 is p0.0 and p0.1	*/
000d68  4964              LDR      r1,|L5.3836|
000d6a  680a              LDR      r2,[r1,#0]
000d6c  f022020f          BIC      r2,r2,#0xf
000d70  600a              STR      r2,[r1,#0]
;;;1492   LPC_PINCON->PINSEL0 |= 0x00000005;
000d72  680a              LDR      r2,[r1,#0]
000d74  f0420205          ORR      r2,r2,#5
000d78  600a              STR      r2,[r1,#0]
;;;1493   
;;;1494   gCANFilter = 0; // Reset and disable all message filters
000d7a  4a5c              LDR      r2,|L5.3820|
000d7c  f04f0100          MOV      r1,#0
000d80  8251              STRH     r1,[r2,#0x12]
;;;1495   
;;;1496   LPC_CANAF->AFMR = 0x00000001L; // Acceptance Filter Mode Register = off !
000d82  4b5f              LDR      r3,|L5.3840|
000d84  f04f0201          MOV      r2,#1
000d88  601a              STR      r2,[r3,#0]
;;;1497   
;;;1498   LPC_CAN1->MOD = 1; // Go into Reset mode
000d8a  4c5e              LDR      r4,|L5.3844|
000d8c  6022              STR      r2,[r4,#0]
;;;1499   
;;;1500   LPC_CAN1->IER = 0;// Disable All Interrupts
000d8e  6121              STR      r1,[r4,#0x10]
;;;1501   
;;;1502   LPC_CAN1->GSR = 0; // Clear Status register
000d90  60a1              STR      r1,[r4,#8]
;;;1503   
;;;1504   LPC_CAN1->BTR = can_btr; // Set bit timing
000d92  6160              STR      r0,[r4,#0x14]
;;;1505   
;;;1506   //LPC_CAN1->IER |=(1<<0)|(1<<1)|(1<<9)|(1<<10); // Enable Receive & Transmit Interrupt
;;;1507   
;;;1508   LPC_CAN1->MOD = 0; // Enter Normal Operating Mode
000d94  6021              STR      r1,[r4,#0]
;;;1509   
;;;1510   LPC_CAN1->EWL = 110; // Enter Normal Operating Mode
000d96  f04f006e          MOV      r0,#0x6e
000d9a  61a0              STR      r0,[r4,#0x18]
;;;1511   
;;;1512   NVIC_EnableIRQ(CAN_IRQn);
000d9c  f04f0019          MOV      r0,#0x19
000da0  f7fffffe          BL       NVIC_EnableIRQ
;;;1513   LPC_CAN1->IER =0x0007;
000da4  2007              MOVS     r0,#7
000da6  6120              STR      r0,[r4,#0x10]
;;;1514   return 1;
000da8  2001              MOVS     r0,#1
;;;1515   }
000daa  bd10              POP      {r4,pc}
;;;1516   
                          ENDP

                  FullCAN_SetFilter PROC
;;;1554   ***************************************************************************/ 
;;;1555   short FullCAN_SetFilter  (
000dac  b5f0              PUSH     {r4-r7,lr}
;;;1556                            unsigned short can_port, // CAN interface number
;;;1557                            unsigned int CANID // 11-bit CAN ID
;;;1558                            )
;;;1559   {
;;;1560   unsigned int p, n;
;;;1561   unsigned int buf0, buf1;
;;;1562   unsigned int ID_lower, ID_upper;
;;;1563   unsigned int candata;
;;;1564   unsigned int *pAddr;
;;;1565   
;;;1566    
;;;1567   
;;;1568   // Acceptance Filter Mode Register = off !
;;;1569   LPC_CANAF->AFMR = 0x00000001L;
000dae  4c54              LDR      r4,|L5.3840|
000db0  2201              MOVS     r2,#1
000db2  6022              STR      r2,[r4,#0]
;;;1570   
;;;1571   if (gCANFilter == 0)
000db4  4b4d              LDR      r3,|L5.3820|
000db6  8a5d              LDRH     r5,[r3,#0x12]  ; gCANFilter
;;;1572        {    
;;;1573        // First call, init entry zero
;;;1574        gFullCANList[0].Dat1 = 0x000037FFL; // CAN 1, disabled and unused
000db8  4a4e              LDR      r2,|L5.3828|
000dba  328c              ADDS     r2,r2,#0x8c
000dbc  b915              CBNZ     r5,|L5.3524|
000dbe  f24375ff          MOV      r5,#0x37ff
000dc2  6015              STR      r5,[r2,#0]  ; gFullCANList
                  |L5.3524|
;;;1575        }
;;;1576   if (gCANFilter >= MAX_FILTERS)
000dc4  f9b35012          LDRSH    r5,[r3,#0x12]  ; gCANFilter
000dc8  2d02              CMP      r5,#2
000dca  db01              BLT      |L5.3536|
;;;1577        {
;;;1578        return 0;
000dcc  2000              MOVS     r0,#0
;;;1579        }
;;;1580   
;;;1581   CANID &= 0x000007FFL; // Mask out 11-bit ID
;;;1582   CANID |= (can_port << 13); // Put can_port info in bits 13-15
;;;1583   
;;;1584   // Filters must be sorted by interface, then by priority
;;;1585   // new filter is sorted into array
;;;1586   p = 0;
;;;1587   while (p < gCANFilter) // loop through all existing filters 
;;;1588        {
;;;1589        if ((gFullCANList[p].Dat1 & 0x0000FFFFL) > CANID)
;;;1590             {
;;;1591             break;
;;;1592             }
;;;1593        p++;
;;;1594        }
;;;1595   
;;;1596   // insert new filter here
;;;1597   buf0 = gFullCANList[p].Dat1; // save current entry
;;;1598   gFullCANList[p].Dat1 = CANID; // insert the new entry
;;;1599   
;;;1600   // move all remaining entries one row up
;;;1601   gCANFilter++;
;;;1602   while (p < gCANFilter)
;;;1603        {
;;;1604        p++;
;;;1605        buf1 = gFullCANList[p].Dat1;
;;;1606        gFullCANList[p].Dat1 = buf0;
;;;1607        buf0 = buf1;
;;;1608        }
;;;1609   
;;;1610   // Now work on Acceptance Filter Configuration     
;;;1611   // Set CAN filter for 11-bit standard identifiers
;;;1612   p = 0;
;;;1613   
;;;1614   // Set pointer for Standard Frame Individual
;;;1615   // Standard Frame Explicit
;;;1616   LPC_CANAF->SFF_sa = p;
;;;1617   
;;;1618   pAddr = (unsigned int *) LPC_CANAF_RAM_BASE;
;;;1619   for (n = 0; n < ((gCANFilter+1)/2); n++)
;;;1620        {
;;;1621        ID_lower = gFullCANList[n * 2].Dat1 & 0x0000FFFFL;
;;;1622        ID_upper = gFullCANList[n * 2 + 1].Dat1 & 0x0000FFFFL;
;;;1623        candata = (ID_lower << 16) + ID_upper;
;;;1624        *pAddr = candata;
;;;1625        p += 4;
;;;1626        pAddr++;
;;;1627        }
;;;1628   
;;;1629   // p is still pointing to ENDofTable;
;;;1630     
;;;1631   // Set pointer for Standard Frame Groups
;;;1632   // Standard Frame Group Start Address Register
;;;1633   LPC_CANAF->SFF_GRP_sa = p;
;;;1634   
;;;1635   // Set pointer for Extended Frame Individual
;;;1636   // Extended Frame Start Address Register
;;;1637   LPC_CANAF->EFF_sa = p;
;;;1638   
;;;1639   // Set pointer for Extended Frame Groups
;;;1640   // Extended Frame Group Start Address Register
;;;1641   LPC_CANAF->EFF_GRP_sa = p;
;;;1642   
;;;1643   // Set ENDofTable 
;;;1644   // End of AF Tables Register
;;;1645   LPC_CANAF->ENDofTable = p;
;;;1646   
;;;1647   // Acceptance Filter Mode Register, start using filter
;;;1648   LPC_CANAF->AFMR = 0;
;;;1649     
;;;1650   return 1;
;;;1651   
;;;1652   /*
;;;1653     // Acceptance Filter Mode Register = off !
;;;1654   LPC_CANAF->AFMR = 0x00000001L;
;;;1655   
;;;1656     if (gCANFilter == 0)
;;;1657     { // First call, init entry zero
;;;1658       gFullCANList[0].Dat1 = 0x000037FFL; // CAN 1, disabled and unused
;;;1659     }
;;;1660     if (gCANFilter >= MAX_FILTERS)
;;;1661     {
;;;1662       return 0;
;;;1663     }
;;;1664   
;;;1665     CANID &= 0x000007FFL; // Mask out 11-bit ID
;;;1666     CANID |= (can_port << 13); // Put can_port info in bits 13-15
;;;1667   
;;;1668     // Filters must be sorted by interface, then by priority
;;;1669     // new filter is sorted into array
;;;1670     p = 0;
;;;1671     while (p < gCANFilter) // loop through all existing filters 
;;;1672     {
;;;1673       if ((gFullCANList[p].Dat1 & 0x0000FFFFL) > CANID)
;;;1674       {
;;;1675         break;
;;;1676       }
;;;1677       p++;
;;;1678     }
;;;1679   
;;;1680     // insert new filter here
;;;1681     buf0 = gFullCANList[p].Dat1; // save current entry
;;;1682     gFullCANList[p].Dat1 = CANID; // insert the new entry
;;;1683   
;;;1684     // move all remaining entries one row up
;;;1685     gCANFilter++;
;;;1686     while (p < gCANFilter)
;;;1687     {
;;;1688       p++;
;;;1689       buf1 = gFullCANList[p].Dat1;
;;;1690       gFullCANList[p].Dat1 = buf0;
;;;1691       buf0 = buf1;
;;;1692     }
;;;1693   
;;;1694     // Now work on Acceptance Filter Configuration     
;;;1695     // Set CAN filter for 11-bit standard identifiers
;;;1696     p = 0;
;;;1697   
;;;1698     // Set pointer for Standard Frame Individual
;;;1699     // Standard Frame Explicit
;;;1700   LPC_CANAF->SFF_sa = p;
;;;1701   
;;;1702     pAddr = (unsigned int *) ACCEPTANCE_FILTER_RAM_BASE;
;;;1703     for (n = 0; n < ((gCANFilter+1)/2); n++)
;;;1704     {
;;;1705       ID_lower = gFullCANList[n * 2].Dat1 & 0x0000FFFFL;
;;;1706       ID_upper = gFullCANList[n * 2 + 1].Dat1 & 0x0000FFFFL;
;;;1707       candata = (ID_lower << 16) + ID_upper;
;;;1708       *pAddr = candata;
;;;1709       p += 4;
;;;1710       pAddr++;
;;;1711     }
;;;1712   
;;;1713     // p is still pointing to ENDofTable;
;;;1714     
;;;1715     // Set pointer for Standard Frame Groups
;;;1716     // Standard Frame Group Start Address Register
;;;1717   LPC_CANAF->SFF_GRP_sa = p;
;;;1718   
;;;1719     // Set pointer for Extended Frame Individual
;;;1720     // Extended Frame Start Address Register
;;;1721   LPC_CANAF->EFF_sa = p;
;;;1722   
;;;1723     // Set pointer for Extended Frame Groups
;;;1724     // Extended Frame Group Start Address Register
;;;1725   LPC_CANAF->EFF_GRP_sa = p;
;;;1726   
;;;1727     // Set ENDofTable 
;;;1728     // End of AF Tables Register
;;;1729   LPC_CANAF->ENDofTable = p;
;;;1730   
;;;1731     // Acceptance Filter Mode Register, start using filter
;;;1732   LPC_CANAF->AFMR = 0;
;;;1733     
;;;1734     return 1;	 */
;;;1735   }
000dce  bdf0              POP      {r4-r7,pc}
                  |L5.3536|
000dd0  f3c1010a          UBFX     r1,r1,#0,#11          ;1581
000dd4  ea413540          ORR      r5,r1,r0,LSL #13      ;1582
000dd8  2000              MOVS     r0,#0                 ;1586
000dda  e007              B        |L5.3564|
                  |L5.3548|
000ddc  eb000140          ADD      r1,r0,r0,LSL #1       ;1589
000de0  f8521021          LDR      r1,[r2,r1,LSL #2]     ;1589
000de4  b289              UXTH     r1,r1                 ;1589
000de6  42a9              CMP      r1,r5                 ;1589
000de8  d804              BHI      |L5.3572|
000dea  1c40              ADDS     r0,r0,#1              ;1593
                  |L5.3564|
000dec  f9b31012          LDRSH    r1,[r3,#0x12]         ;1587  ; gCANFilter
000df0  4288              CMP      r0,r1                 ;1587
000df2  d3f3              BCC      |L5.3548|
                  |L5.3572|
000df4  eb000640          ADD      r6,r0,r0,LSL #1       ;1597
000df8  f8521026          LDR      r1,[r2,r6,LSL #2]     ;1597
000dfc  f8425026          STR      r5,[r2,r6,LSL #2]     ;1598
000e00  8a5d              LDRH     r5,[r3,#0x12]         ;1601  ; gCANFilter
000e02  1c6d              ADDS     r5,r5,#1              ;1601
000e04  825d              STRH     r5,[r3,#0x12]         ;1601
000e06  e007              B        |L5.3608|
                  |L5.3592|
000e08  1c40              ADDS     r0,r0,#1              ;1604
000e0a  eb000640          ADD      r6,r0,r0,LSL #1       ;1605
000e0e  f8525026          LDR      r5,[r2,r6,LSL #2]     ;1605
000e12  f8421026          STR      r1,[r2,r6,LSL #2]     ;1606
000e16  4629              MOV      r1,r5                 ;1607
                  |L5.3608|
000e18  f9b35012          LDRSH    r5,[r3,#0x12]         ;1602  ; gCANFilter
000e1c  42a8              CMP      r0,r5                 ;1602
000e1e  d3f3              BCC      |L5.3592|
000e20  2000              MOVS     r0,#0                 ;1612
000e22  6060              STR      r0,[r4,#4]            ;1616
000e24  4d38              LDR      r5,|L5.3848|
000e26  4601              MOV      r1,r0                 ;1619
000e28  e00d              B        |L5.3654|
000e2a  bf00              NOP                            ;1621
                  |L5.3628|
000e2c  eb010741          ADD      r7,r1,r1,LSL #1       ;1621
000e30  f8526037          LDR      r6,[r2,r7,LSL #3]     ;1621
000e34  eb0207c7          ADD      r7,r2,r7,LSL #3       ;1622
000e38  68ff              LDR      r7,[r7,#0xc]          ;1622
000e3a  1d00              ADDS     r0,r0,#4              ;1625
000e3c  b2bf              UXTH     r7,r7                 ;1622
000e3e  eb074606          ADD      r6,r7,r6,LSL #16      ;1623
000e42  c540              STM      r5!,{r6}              ;1624
000e44  1c49              ADDS     r1,r1,#1              ;1619
                  |L5.3654|
000e46  f9b36012          LDRSH    r6,[r3,#0x12]         ;1619  ; gCANFilter
000e4a  1c76              ADDS     r6,r6,#1              ;1619
000e4c  eb0676d6          ADD      r6,r6,r6,LSR #31      ;1619
000e50  ebb10f66          CMP      r1,r6,ASR #1          ;1619
000e54  d3ea              BCC      |L5.3628|
000e56  60a0              STR      r0,[r4,#8]            ;1633
000e58  60e0              STR      r0,[r4,#0xc]          ;1637
000e5a  6120              STR      r0,[r4,#0x10]         ;1641
000e5c  6160              STR      r0,[r4,#0x14]         ;1645
000e5e  2000              MOVS     r0,#0                 ;1648
000e60  6020              STR      r0,[r4,#0]            ;1648
000e62  2001              MOVS     r0,#1                 ;1650
000e64  bdf0              POP      {r4-r7,pc}
;;;1736   
                          ENDP

                  CAN_IRQHandler PROC
;;;1737   //-----------------------------------------------
;;;1738   void CAN_IRQHandler(void)  
000e66  4827              LDR      r0,|L5.3844|
;;;1739   {
000e68  b510              PUSH     {r4,lr}
;;;1740   //can_rotor[0]++;
;;;1741   CANStatus = LPC_CAN1->ICR;
000e6a  68c0              LDR      r0,[r0,#0xc]
000e6c  4c1f              LDR      r4,|L5.3820|
000e6e  61a0              STR      r0,[r4,#0x18]  ; CANStatus
;;;1742   //new_rotor[3]=CANStatus;
;;;1743   //new_rotor[4]=CANStatus>>16;
;;;1744   //
;;;1745   //rotor_rotor_rotor[0]++;
;;;1746   		
;;;1747   if ( CANStatus & (1 << 0) )
000e70  69a0              LDR      r0,[r4,#0x18]  ; CANStatus
000e72  07c0              LSLS     r0,r0,#31
000e74  d005              BEQ      |L5.3714|
;;;1748        {
;;;1749   	CAN_ISR_Rx1();
000e76  f7fffffe          BL       CAN_ISR_Rx1
;;;1750   	plazma_can1++;
000e7a  7b20              LDRB     r0,[r4,#0xc]  ; plazma_can1
000e7c  f1000001          ADD      r0,r0,#1
000e80  7320              STRB     r0,[r4,#0xc]
                  |L5.3714|
;;;1751        }
;;;1752   
;;;1753   if ( CANStatus & (1 << 1) )
000e82  69a0              LDR      r0,[r4,#0x18]  ; CANStatus
000e84  0780              LSLS     r0,r0,#30
000e86  d505              BPL      |L5.3732|
;;;1754        {
;;;1755   	can_isr_tx1();
000e88  f7fffffe          BL       can_isr_tx1
;;;1756   	plazma_can2++;
000e8c  7b60              LDRB     r0,[r4,#0xd]  ; plazma_can2
000e8e  f1000001          ADD      r0,r0,#1
000e92  7360              STRB     r0,[r4,#0xd]
                  |L5.3732|
;;;1757   	
;;;1758        }
;;;1759   
;;;1760   if ( CANStatus & (1 << 2) )
000e94  69a0              LDR      r0,[r4,#0x18]  ; CANStatus
000e96  0740              LSLS     r0,r0,#29
000e98  d501              BPL      |L5.3742|
;;;1761        {
;;;1762   	//can_isr_tx1();
;;;1763   	//plazma_can2++;
;;;1764   	bCAN1_INIT=1;
000e9a  2001              MOVS     r0,#1
000e9c  7420              STRB     r0,[r4,#0x10]
                  |L5.3742|
;;;1765        }
;;;1766   
;;;1767   CANStatus = LPC_CAN2->ICR;
000e9e  4814              LDR      r0,|L5.3824|
000ea0  68c0              LDR      r0,[r0,#0xc]
000ea2  61a0              STR      r0,[r4,#0x18]  ; CANStatus
;;;1768   //new_rotor[3]=CANStatus;
;;;1769   //new_rotor[4]=CANStatus>>16;
;;;1770   //
;;;1771   //rotor_rotor_rotor[0]++;
;;;1772   plazma_can++;		
000ea4  7ae0              LDRB     r0,[r4,#0xb]  ; plazma_can
000ea6  1c40              ADDS     r0,r0,#1
000ea8  72e0              STRB     r0,[r4,#0xb]
;;;1773   if ( CANStatus & (1 << 0) )
000eaa  69a0              LDR      r0,[r4,#0x18]  ; CANStatus
000eac  07c0              LSLS     r0,r0,#31
000eae  d008              BEQ      |L5.3778|
;;;1774        {
;;;1775   	CAN_ISR_Rx2();
000eb0  f7fffffe          BL       CAN_ISR_Rx2
;;;1776   	plazma_can3++;
000eb4  7ba0              LDRB     r0,[r4,#0xe]  ; plazma_can3
000eb6  f1000001          ADD      r0,r0,#1
000eba  73a0              STRB     r0,[r4,#0xe]
;;;1777   	cnt_can_pal=0;
000ebc  f04f0000          MOV      r0,#0
000ec0  72a0              STRB     r0,[r4,#0xa]
                  |L5.3778|
;;;1778   
;;;1779        }
;;;1780   
;;;1781   if ( CANStatus & (1 << 1) )
000ec2  69a0              LDR      r0,[r4,#0x18]  ; CANStatus
000ec4  0780              LSLS     r0,r0,#30
000ec6  d504              BPL      |L5.3794|
;;;1782        {
;;;1783   	can_isr_tx2();
000ec8  f7fffffe          BL       can_isr_tx2
;;;1784   	 plazma_can4++;
000ecc  7be0              LDRB     r0,[r4,#0xf]  ; plazma_can4
000ece  1c40              ADDS     r0,r0,#1
000ed0  73e0              STRB     r0,[r4,#0xf]
                  |L5.3794|
;;;1785   	
;;;1786        }
;;;1787   
;;;1788   return;
;;;1789   }
000ed2  bd10              POP      {r4,pc}
;;;1790   
                          ENDP

                  NVIC_EnableIRQ PROC
;;;1095    */
;;;1096   static __INLINE void NVIC_EnableIRQ(IRQn_Type IRQn)
000ed4  f000021f          AND      r2,r0,#0x1f
;;;1097   {
;;;1098     NVIC->ISER[((uint32_t)(IRQn) >> 5)] = (1 << ((uint32_t)(IRQn) & 0x1F)); /* enable interrupt */
000ed8  2101              MOVS     r1,#1
000eda  4091              LSLS     r1,r1,r2
000edc  0940              LSRS     r0,r0,#5
000ede  f04f22e0          MOV      r2,#0xe000e000
000ee2  eb020080          ADD      r0,r2,r0,LSL #2
000ee6  f8c01100          STR      r1,[r0,#0x100]
;;;1099   }
000eea  e6e3              B        |L5.3252|
;;;1100   
                          ENDP

                  |L5.3820|
                          DCD      ||.data||
                  |L5.3824|
                          DCD      0x40048000
                  |L5.3828|
                          DCD      ||.bss||+0x80
                  |L5.3832|
                          DCD      0x400fc0c4
                  |L5.3836|
                          DCD      0x4002c000
                  |L5.3840|
                          DCD      0x4003c000
                  |L5.3844|
                          DCD      0x40044000
                  |L5.3848|
                          DCD      0x40038000

                          AREA ||area_number.6||, CODE, READONLY, ALIGN=2

                          EXPORTAS ||area_number.6||, ||.text||
                  can2_out_adr PROC
;;;109    //-----------------------------------------------
;;;110    char CRC1_in(void)
000000  e92d4ff0          PUSH     {r4-r11,lr}
;;;111    {
;;;112    char r,j,lb;
;;;113    lb=(RXBUFF[1]&0x1f)+0x04;
;;;114    r=RXBUFF[0];
;;;115    for(j=1;j<(lb+1);j++)
000004  f8dfa3d4          LDR      r10,|L6.988|
000008  4df5              LDR      r5,|L6.992|
00000a  2600              MOVS     r6,#0                 ;113
00000c  f89a2004          LDRB     r2,[r10,#4]           ;113
000010  f1050b40          ADD      r11,r5,#0x40
;;;116    	{
;;;117    	r=(RXBUFF[j]^Table87[r]);
000014  1c53              ADDS     r3,r2,#1
000016  b2db              UXTB     r3,r3
000018  4699              MOV      r9,r3
00001a  f1050e60          ADD      lr,r5,#0x60           ;115
00001e  f04f0c9e          MOV      r12,#0x9e             ;115
;;;118    	}
;;;119    if(r==0)r=0xFF;
000022  eb0e0382          ADD      r3,lr,r2,LSL #2
000026  eb0b0482          ADD      r4,r11,r2,LSL #2
;;;120    return r;	
;;;121    } 
00002a  2908              CMP      r1,#8
00002c  d824              BHI      |L6.120|
00002e  f44f2770          MOV      r7,#0xf0000
000032  ea074101          AND      r1,r7,r1,LSL #16
000036  f8451022          STR      r1,[r5,r2,LSL #2]
00003a  f1050120          ADD      r1,r5,#0x20
00003e  46d0              MOV      r8,r10
000040  f841c022          STR      r12,[r1,r2,LSL #2]
000044  7807              LDRB     r7,[r0,#0]
000046  f80b7022          STRB     r7,[r11,r2,LSL #2]
00004a  7841              LDRB     r1,[r0,#1]
00004c  7061              STRB     r1,[r4,#1]
00004e  7881              LDRB     r1,[r0,#2]
000050  70a1              STRB     r1,[r4,#2]
000052  78c1              LDRB     r1,[r0,#3]
000054  70e1              STRB     r1,[r4,#3]
000056  7904              LDRB     r4,[r0,#4]
000058  f80e4022          STRB     r4,[lr,r2,LSL #2]
00005c  7941              LDRB     r1,[r0,#5]
00005e  7059              STRB     r1,[r3,#1]
000060  7981              LDRB     r1,[r0,#6]
000062  7099              STRB     r1,[r3,#2]
000064  79c0              LDRB     r0,[r0,#7]
000066  70d8              STRB     r0,[r3,#3]
000068  f8889004          STRB     r9,[r8,#4]
00006c  f1b90f08          CMP      r9,#8
000070  d301              BCC      |L6.118|
000072  f88a6004          STRB     r6,[r10,#4]
                  |L6.118|
000076  e18f              B        |L6.920|
                  |L6.120|
000078  f44f2700          MOV      r7,#0x80000
00007c  2910              CMP      r1,#0x10
00007e  d856              BHI      |L6.302|
000080  f8dfc35c          LDR      r12,|L6.992|
000084  f8457022          STR      r7,[r5,r2,LSL #2]
000088  279e              MOVS     r7,#0x9e
00008a  f10c0c20          ADD      r12,r12,#0x20
00008e  f1b90f08          CMP      r9,#8
000092  f84c7022          STR      r7,[r12,r2,LSL #2]
000096  f8908000          LDRB     r8,[r0,#0]
00009a  f80b8022          STRB     r8,[r11,r2,LSL #2]
00009e  f8908001          LDRB     r8,[r0,#1]
0000a2  f8848001          STRB     r8,[r4,#1]
0000a6  f8908002          LDRB     r8,[r0,#2]
0000aa  f8848002          STRB     r8,[r4,#2]
0000ae  f8908003          LDRB     r8,[r0,#3]
0000b2  f8848003          STRB     r8,[r4,#3]
0000b6  f8908004          LDRB     r8,[r0,#4]
0000ba  f80e8022          STRB     r8,[lr,r2,LSL #2]
0000be  7942              LDRB     r2,[r0,#5]
0000c0  705a              STRB     r2,[r3,#1]
0000c2  7982              LDRB     r2,[r0,#6]
0000c4  709a              STRB     r2,[r3,#2]
0000c6  79c2              LDRB     r2,[r0,#7]
0000c8  70da              STRB     r2,[r3,#3]
0000ca  465f              MOV      r7,r11
0000cc  4674              MOV      r4,lr
0000ce  4653              MOV      r3,r10
0000d0  f88a9004          STRB     r9,[r10,#4]
0000d4  d300              BCC      |L6.216|
0000d6  711e              STRB     r6,[r3,#4]
                  |L6.216|
0000d8  3908              SUBS     r1,r1,#8
0000da  f44f2270          MOV      r2,#0xf0000
0000de  ea024201          AND      r2,r2,r1,LSL #16
0000e2  f89a1004          LDRB     r1,[r10,#4]  ; ptr_can2_tx_wr
0000e6  eb0b0381          ADD      r3,r11,r1,LSL #2
0000ea  f8452021          STR      r2,[r5,r1,LSL #2]
0000ee  229e              MOVS     r2,#0x9e
0000f0  f84c2021          STR      r2,[r12,r1,LSL #2]
0000f4  7a02              LDRB     r2,[r0,#8]
0000f6  f8072021          STRB     r2,[r7,r1,LSL #2]
0000fa  7a42              LDRB     r2,[r0,#9]
0000fc  705a              STRB     r2,[r3,#1]
0000fe  7a82              LDRB     r2,[r0,#0xa]
000100  709a              STRB     r2,[r3,#2]
000102  7ac2              LDRB     r2,[r0,#0xb]
000104  70da              STRB     r2,[r3,#3]
000106  7b02              LDRB     r2,[r0,#0xc]
000108  f8042021          STRB     r2,[r4,r1,LSL #2]
00010c  eb0e0281          ADD      r2,lr,r1,LSL #2
000110  7b43              LDRB     r3,[r0,#0xd]
000112  7053              STRB     r3,[r2,#1]
000114  7b83              LDRB     r3,[r0,#0xe]
000116  7093              STRB     r3,[r2,#2]
000118  7bc0              LDRB     r0,[r0,#0xf]
00011a  70d0              STRB     r0,[r2,#3]
00011c  1c49              ADDS     r1,r1,#1
00011e  b2c8              UXTB     r0,r1
000120  4651              MOV      r1,r10
000122  f88a0004          STRB     r0,[r10,#4]
000126  2808              CMP      r0,#8
000128  d3a5              BCC      |L6.118|
00012a  710e              STRB     r6,[r1,#4]
00012c  e134              B        |L6.920|
                  |L6.302|
00012e  2918              CMP      r1,#0x18
000130  d87e              BHI      |L6.560|
000132  f8df82ac          LDR      r8,|L6.992|
000136  f8457022          STR      r7,[r5,r2,LSL #2]
00013a  f1080820          ADD      r8,r8,#0x20
00013e  f04f0c9e          MOV      r12,#0x9e
000142  f848c022          STR      r12,[r8,r2,LSL #2]
000146  f8908000          LDRB     r8,[r0,#0]
00014a  f80b8022          STRB     r8,[r11,r2,LSL #2]
00014e  f890c001          LDRB     r12,[r0,#1]
000152  f884c001          STRB     r12,[r4,#1]
000156  f890c002          LDRB     r12,[r0,#2]
00015a  f884c002          STRB     r12,[r4,#2]
00015e  f890c003          LDRB     r12,[r0,#3]
000162  f884c003          STRB     r12,[r4,#3]
000166  f890c004          LDRB     r12,[r0,#4]
00016a  f80ec022          STRB     r12,[lr,r2,LSL #2]
00016e  7942              LDRB     r2,[r0,#5]
000170  705a              STRB     r2,[r3,#1]
000172  7982              LDRB     r2,[r0,#6]
000174  709a              STRB     r2,[r3,#2]
000176  79c2              LDRB     r2,[r0,#7]
000178  70da              STRB     r2,[r3,#3]
00017a  4674              MOV      r4,lr
00017c  4653              MOV      r3,r10
00017e  f88a9004          STRB     r9,[r10,#4]
000182  f1b90f08          CMP      r9,#8
000186  d300              BCC      |L6.394|
000188  711e              STRB     r6,[r3,#4]
                  |L6.394|
00018a  f89a2004          LDRB     r2,[r10,#4]  ; ptr_can2_tx_wr
00018e  f8df9250          LDR      r9,|L6.992|
000192  eb0b0382          ADD      r3,r11,r2,LSL #2
000196  f8457022          STR      r7,[r5,r2,LSL #2]
00019a  f1090920          ADD      r9,r9,#0x20
00019e  279e              MOVS     r7,#0x9e
0001a0  f8497022          STR      r7,[r9,r2,LSL #2]
0001a4  f890c008          LDRB     r12,[r0,#8]
0001a8  f80bc022          STRB     r12,[r11,r2,LSL #2]
0001ac  f890c009          LDRB     r12,[r0,#9]
0001b0  f883c001          STRB     r12,[r3,#1]
0001b4  f890c00a          LDRB     r12,[r0,#0xa]
0001b8  f883c002          STRB     r12,[r3,#2]
0001bc  f890c00b          LDRB     r12,[r0,#0xb]
0001c0  f883c003          STRB     r12,[r3,#3]
0001c4  7b03              LDRB     r3,[r0,#0xc]
0001c6  f8043022          STRB     r3,[r4,r2,LSL #2]
0001ca  eb040c82          ADD      r12,r4,r2,LSL #2
0001ce  7b43              LDRB     r3,[r0,#0xd]
0001d0  f88c3001          STRB     r3,[r12,#1]
0001d4  7b83              LDRB     r3,[r0,#0xe]
0001d6  f88c3002          STRB     r3,[r12,#2]
0001da  7bc3              LDRB     r3,[r0,#0xf]
0001dc  1c52              ADDS     r2,r2,#1
0001de  46d0              MOV      r8,r10
0001e0  f88c3003          STRB     r3,[r12,#3]
0001e4  b2d2              UXTB     r2,r2
0001e6  4643              MOV      r3,r8
0001e8  f8882004          STRB     r2,[r8,#4]
0001ec  2a08              CMP      r2,#8
0001ee  d300              BCC      |L6.498|
0001f0  711e              STRB     r6,[r3,#4]
                  |L6.498|
0001f2  3910              SUBS     r1,r1,#0x10
0001f4  f44f2270          MOV      r2,#0xf0000
0001f8  ea024301          AND      r3,r2,r1,LSL #16
0001fc  f8981004          LDRB     r1,[r8,#4]  ; ptr_can2_tx_wr
000200  4642              MOV      r2,r8
000202  f8453021          STR      r3,[r5,r1,LSL #2]
000206  f8497021          STR      r7,[r9,r1,LSL #2]
00020a  7c07              LDRB     r7,[r0,#0x10]
00020c  f80b7021          STRB     r7,[r11,r1,LSL #2]
000210  eb0b0381          ADD      r3,r11,r1,LSL #2
000214  7c47              LDRB     r7,[r0,#0x11]
000216  705f              STRB     r7,[r3,#1]
000218  7c87              LDRB     r7,[r0,#0x12]
00021a  709f              STRB     r7,[r3,#2]
00021c  7cc7              LDRB     r7,[r0,#0x13]
00021e  70df              STRB     r7,[r3,#3]
000220  7d03              LDRB     r3,[r0,#0x14]
000222  f8043021          STRB     r3,[r4,r1,LSL #2]
000226  eb0e0481          ADD      r4,lr,r1,LSL #2
00022a  7d43              LDRB     r3,[r0,#0x15]
00022c  7063              STRB     r3,[r4,#1]
00022e  e000              B        |L6.562|
                  |L6.560|
000230  e007              B        |L6.578|
                  |L6.562|
000232  7d83              LDRB     r3,[r0,#0x16]
000234  70a3              STRB     r3,[r4,#2]
000236  7dc0              LDRB     r0,[r0,#0x17]
000238  70e0              STRB     r0,[r4,#3]
00023a  1c49              ADDS     r1,r1,#1
00023c  b2c8              UXTB     r0,r1
00023e  7110              STRB     r0,[r2,#4]
000240  e0a6              B        |L6.912|
                  |L6.578|
000242  2920              CMP      r1,#0x20
000244  d87d              BHI      |L6.834|
000246  f8df8198          LDR      r8,|L6.992|
00024a  f8457022          STR      r7,[r5,r2,LSL #2]
00024e  f1080820          ADD      r8,r8,#0x20
000252  f04f0c9e          MOV      r12,#0x9e
000256  f848c022          STR      r12,[r8,r2,LSL #2]
00025a  f8908000          LDRB     r8,[r0,#0]
00025e  f80b8022          STRB     r8,[r11,r2,LSL #2]
000262  f890c001          LDRB     r12,[r0,#1]
000266  f884c001          STRB     r12,[r4,#1]
00026a  f890c002          LDRB     r12,[r0,#2]
00026e  f884c002          STRB     r12,[r4,#2]
000272  f890c003          LDRB     r12,[r0,#3]
000276  f884c003          STRB     r12,[r4,#3]
00027a  f890c004          LDRB     r12,[r0,#4]
00027e  f80ec022          STRB     r12,[lr,r2,LSL #2]
000282  7942              LDRB     r2,[r0,#5]
000284  705a              STRB     r2,[r3,#1]
000286  7982              LDRB     r2,[r0,#6]
000288  709a              STRB     r2,[r3,#2]
00028a  79c2              LDRB     r2,[r0,#7]
00028c  70da              STRB     r2,[r3,#3]
00028e  4653              MOV      r3,r10
000290  f88a9004          STRB     r9,[r10,#4]
000294  f1b90f08          CMP      r9,#8
000298  d300              BCC      |L6.668|
00029a  711e              STRB     r6,[r3,#4]
                  |L6.668|
00029c  f89a2004          LDRB     r2,[r10,#4]  ; ptr_can2_tx_wr
0002a0  4b4f              LDR      r3,|L6.992|
0002a2  f04f0c9e          MOV      r12,#0x9e
0002a6  3320              ADDS     r3,r3,#0x20
0002a8  f8457022          STR      r7,[r5,r2,LSL #2]
0002ac  f843c022          STR      r12,[r3,r2,LSL #2]
0002b0  7a04              LDRB     r4,[r0,#8]
0002b2  f80b4022          STRB     r4,[r11,r2,LSL #2]
0002b6  eb0b0382          ADD      r3,r11,r2,LSL #2
0002ba  7a44              LDRB     r4,[r0,#9]
0002bc  705c              STRB     r4,[r3,#1]
0002be  7a84              LDRB     r4,[r0,#0xa]
0002c0  709c              STRB     r4,[r3,#2]
0002c2  7ac4              LDRB     r4,[r0,#0xb]
0002c4  70dc              STRB     r4,[r3,#3]
0002c6  7b04              LDRB     r4,[r0,#0xc]
0002c8  f80e4022          STRB     r4,[lr,r2,LSL #2]
0002cc  eb0e0382          ADD      r3,lr,r2,LSL #2
0002d0  7b44              LDRB     r4,[r0,#0xd]
0002d2  705c              STRB     r4,[r3,#1]
0002d4  7b84              LDRB     r4,[r0,#0xe]
0002d6  709c              STRB     r4,[r3,#2]
0002d8  7bc4              LDRB     r4,[r0,#0xf]
0002da  1c52              ADDS     r2,r2,#1
0002dc  46d0              MOV      r8,r10
0002de  70dc              STRB     r4,[r3,#3]
0002e0  b2d2              UXTB     r2,r2
0002e2  46d9              MOV      r9,r11
0002e4  4643              MOV      r3,r8
0002e6  f8882004          STRB     r2,[r8,#4]
0002ea  2a08              CMP      r2,#8
0002ec  d300              BCC      |L6.752|
0002ee  711e              STRB     r6,[r3,#4]
                  |L6.752|
0002f0  f8982004          LDRB     r2,[r8,#4]  ; ptr_can2_tx_wr
0002f4  4b3a              LDR      r3,|L6.992|
0002f6  f8457022          STR      r7,[r5,r2,LSL #2]
0002fa  3320              ADDS     r3,r3,#0x20
0002fc  eb0e0782          ADD      r7,lr,r2,LSL #2
000300  f843c022          STR      r12,[r3,r2,LSL #2]
000304  7c04              LDRB     r4,[r0,#0x10]
000306  f8094022          STRB     r4,[r9,r2,LSL #2]
00030a  eb090382          ADD      r3,r9,r2,LSL #2
00030e  7c44              LDRB     r4,[r0,#0x11]
000310  705c              STRB     r4,[r3,#1]
000312  7c84              LDRB     r4,[r0,#0x12]
000314  709c              STRB     r4,[r3,#2]
000316  7cc4              LDRB     r4,[r0,#0x13]
000318  70dc              STRB     r4,[r3,#3]
00031a  7d04              LDRB     r4,[r0,#0x14]
00031c  f80e4022          STRB     r4,[lr,r2,LSL #2]
000320  7d44              LDRB     r4,[r0,#0x15]
000322  707c              STRB     r4,[r7,#1]
000324  7d84              LDRB     r4,[r0,#0x16]
000326  70bc              STRB     r4,[r7,#2]
000328  7dc4              LDRB     r4,[r0,#0x17]
00032a  1c52              ADDS     r2,r2,#1
00032c  70fc              STRB     r4,[r7,#3]
00032e  b2d2              UXTB     r2,r2
000330  4673              MOV      r3,lr
000332  4644              MOV      r4,r8
000334  f8882004          STRB     r2,[r8,#4]
000338  2a08              CMP      r2,#8
00033a  d300              BCC      |L6.830|
00033c  7126              STRB     r6,[r4,#4]
                  |L6.830|
00033e  3918              SUBS     r1,r1,#0x18
000340  e000              B        |L6.836|
                  |L6.834|
000342  e029              B        |L6.920|
                  |L6.836|
000344  f44f2270          MOV      r2,#0xf0000
000348  ea024201          AND      r2,r2,r1,LSL #16
00034c  f8981004          LDRB     r1,[r8,#4]  ; ptr_can2_tx_wr
000350  4644              MOV      r4,r8
000352  f8452021          STR      r2,[r5,r1,LSL #2]
000356  4a22              LDR      r2,|L6.992|
000358  3220              ADDS     r2,r2,#0x20
00035a  f842c021          STR      r12,[r2,r1,LSL #2]
00035e  7e07              LDRB     r7,[r0,#0x18]
000360  f8097021          STRB     r7,[r9,r1,LSL #2]
000364  eb090281          ADD      r2,r9,r1,LSL #2
000368  7e47              LDRB     r7,[r0,#0x19]
00036a  7057              STRB     r7,[r2,#1]
00036c  7e87              LDRB     r7,[r0,#0x1a]
00036e  7097              STRB     r7,[r2,#2]
000370  7ec7              LDRB     r7,[r0,#0x1b]
000372  70d7              STRB     r7,[r2,#3]
000374  7f02              LDRB     r2,[r0,#0x1c]
000376  f8032021          STRB     r2,[r3,r1,LSL #2]
00037a  eb0e0381          ADD      r3,lr,r1,LSL #2
00037e  7f42              LDRB     r2,[r0,#0x1d]
000380  705a              STRB     r2,[r3,#1]
000382  7f82              LDRB     r2,[r0,#0x1e]
000384  709a              STRB     r2,[r3,#2]
000386  7fc0              LDRB     r0,[r0,#0x1f]
000388  70d8              STRB     r0,[r3,#3]
00038a  1c49              ADDS     r1,r1,#1
00038c  b2c8              UXTB     r0,r1
00038e  7120              STRB     r0,[r4,#4]
                  |L6.912|
000390  2808              CMP      r0,#8
000392  d301              BCC      |L6.920|
000394  f8886004          STRB     r6,[r8,#4]
                  |L6.920|
000398  f89a1001          LDRB     r1,[r10,#1]  ; bOUT_FREE2
00039c  4650              MOV      r0,r10
00039e  2900              CMP      r1,#0
0003a0  d019              BEQ      |L6.982|
0003a2  7941              LDRB     r1,[r0,#5]  ; ptr_can2_tx_rd
0003a4  4a0f              LDR      r2,|L6.996|
0003a6  f8553021          LDR      r3,[r5,r1,LSL #2]
0003aa  6313              STR      r3,[r2,#0x30]
0003ac  4b0c              LDR      r3,|L6.992|
0003ae  3320              ADDS     r3,r3,#0x20
0003b0  f8533021          LDR      r3,[r3,r1,LSL #2]
0003b4  6353              STR      r3,[r2,#0x34]
0003b6  f85b3021          LDR      r3,[r11,r1,LSL #2]
0003ba  6393              STR      r3,[r2,#0x38]
0003bc  f85e3021          LDR      r3,[lr,r1,LSL #2]
0003c0  63d3              STR      r3,[r2,#0x3c]
0003c2  2321              MOVS     r3,#0x21
0003c4  6053              STR      r3,[r2,#4]
0003c6  1c49              ADDS     r1,r1,#1
0003c8  b2c9              UXTB     r1,r1
0003ca  7141              STRB     r1,[r0,#5]
0003cc  2908              CMP      r1,#8
0003ce  d300              BCC      |L6.978|
0003d0  7146              STRB     r6,[r0,#5]
                  |L6.978|
0003d2  f88a6001          STRB     r6,[r10,#1]
                  |L6.982|
0003d6  e8bd8ff0          POP      {r4-r11,pc}
;;;122    
                          ENDP

0003da  0000              DCW      0x0000
                  |L6.988|
                          DCD      ||.data||
                  |L6.992|
                          DCD      ||.bss||+0x80
                  |L6.996|
                          DCD      0x40048000

                          AREA ||area_number.7||, CODE, READONLY, ALIGN=1

                          EXPORTAS ||area_number.7||, ||.text||
                  paking PROC
;;;109    //-----------------------------------------------
;;;110    char CRC1_in(void)
000000  b570              PUSH     {r4-r6,lr}
;;;111    {
;;;112    char r,j,lb;
;;;113    lb=(RXBUFF[1]&0x1f)+0x04;
000002  2200              MOVS     r2,#0
;;;114    r=RXBUFF[0];
;;;115    for(j=1;j<(lb+1);j++)
000004  2407              MOVS     r4,#7
;;;116    	{
;;;117    	r=(RXBUFF[j]^Table87[r]);
000006  e01f              B        |L7.72|
                  |L7.8|
000008  fbb2f5f4          UDIV     r5,r2,r4              ;113
00000c  186b              ADDS     r3,r5,r1              ;113
00000e  eba505c5          SUB      r5,r5,r5,LSL #3       ;114
000012  4415              ADD      r5,r5,r2              ;115
000014  b2db              UXTB     r3,r3
000016  f0150fff          TST      r5,#0xff
00001a  d101              BNE      |L7.32|
00001c  2500              MOVS     r5,#0                 ;115
00001e  54c5              STRB     r5,[r0,r3]            ;115
                  |L7.32|
000020  5cc5              LDRB     r5,[r0,r3]            ;115
;;;118    	}
;;;119    if(r==0)r=0xFF;
000022  066d              LSLS     r5,r5,#25
000024  0e2d              LSRS     r5,r5,#24
000026  54c5              STRB     r5,[r0,r3]
;;;120    return r;	
;;;121    } 
000028  5c86              LDRB     r6,[r0,r2]
00002a  07f6              LSLS     r6,r6,#31
00002c  d002              BEQ      |L7.52|
00002e  f0450501          ORR      r5,r5,#1
000032  e001              B        |L7.56|
                  |L7.52|
000034  f00505fe          AND      r5,r5,#0xfe
                  |L7.56|
000038  54c5              STRB     r5,[r0,r3]
00003a  5c83              LDRB     r3,[r0,r2]
00003c  085b              LSRS     r3,r3,#1
00003e  f0430380          ORR      r3,r3,#0x80
000042  5483              STRB     r3,[r0,r2]
000044  1c52              ADDS     r2,r2,#1
000046  b2d2              UXTB     r2,r2
                  |L7.72|
000048  428a              CMP      r2,r1
00004a  d3dd              BCC      |L7.8|
00004c  fbb1f2f4          UDIV     r2,r1,r4
000050  440a              ADD      r2,r2,r1
000052  1c52              ADDS     r2,r2,#1
000054  e005              B        |L7.98|
                  |L7.86|
000056  5c43              LDRB     r3,[r0,r1]
000058  f0430380          ORR      r3,r3,#0x80
00005c  5443              STRB     r3,[r0,r1]
00005e  1c49              ADDS     r1,r1,#1
000060  b2c9              UXTB     r1,r1
                  |L7.98|
000062  428a              CMP      r2,r1
000064  d8f7              BHI      |L7.86|
000066  bd70              POP      {r4-r6,pc}
;;;122    
                          ENDP


                          AREA ||area_number.8||, CODE, READONLY, ALIGN=2

                          EXPORTAS ||area_number.8||, ||.text||
                  can1_out PROC
;;;109    //-----------------------------------------------
;;;110    char CRC1_in(void)
000000  e92d4ff0          PUSH     {r4-r11,lr}
;;;111    {
;;;112    char r,j,lb;
;;;113    lb=(RXBUFF[1]&0x1f)+0x04;
;;;114    r=RXBUFF[0];
;;;115    for(j=1;j<(lb+1);j++)
000004  ac09              ADD      r4,sp,#0x24
;;;116    	{
;;;117    	r=(RXBUFF[j]^Table87[r]);
000006  4f23              LDR      r7,|L8.148|
000008  e8b44d00          LDM      r4!,{r8,r10,r11,lr}   ;113
00000c  4c22              LDR      r4,|L8.152|
00000e  f44f2600          MOV      r6,#0x80000           ;114
000012  f1070920          ADD      r9,r7,#0x20           ;115
000016  78a5              LDRB     r5,[r4,#2]  ; ptr_can1_tx_wr
000018  f04f0c9e          MOV      r12,#0x9e
00001c  f8476025          STR      r6,[r7,r5,LSL #2]     ;115
000020  f1070640          ADD      r6,r7,#0x40           ;115
;;;118    	}
;;;119    if(r==0)r=0xFF;
000024  f849c025          STR      r12,[r9,r5,LSL #2]
;;;120    return r;	
;;;121    } 
000028  f8060025          STRB     r0,[r6,r5,LSL #2]
00002c  eb060085          ADD      r0,r6,r5,LSL #2
000030  7041              STRB     r1,[r0,#1]
000032  7082              STRB     r2,[r0,#2]
000034  70c3              STRB     r3,[r0,#3]
000036  f1060020          ADD      r0,r6,#0x20
00003a  eb000285          ADD      r2,r0,r5,LSL #2
00003e  f8008025          STRB     r8,[r0,r5,LSL #2]
000042  f882a001          STRB     r10,[r2,#1]
000046  f882b002          STRB     r11,[r2,#2]
00004a  f882e003          STRB     lr,[r2,#3]
00004e  1c6d              ADDS     r5,r5,#1
000050  b2e9              UXTB     r1,r5
000052  2200              MOVS     r2,#0
000054  70a1              STRB     r1,[r4,#2]
000056  2908              CMP      r1,#8
000058  d300              BCC      |L8.92|
00005a  70a2              STRB     r2,[r4,#2]
                  |L8.92|
00005c  7821              LDRB     r1,[r4,#0]  ; bOUT_FREE
00005e  2900              CMP      r1,#0
000060  d016              BEQ      |L8.144|
000062  78e1              LDRB     r1,[r4,#3]  ; ptr_can1_tx_rd
000064  4b0d              LDR      r3,|L8.156|
000066  f8575021          LDR      r5,[r7,r1,LSL #2]
00006a  631d              STR      r5,[r3,#0x30]
00006c  f8595021          LDR      r5,[r9,r1,LSL #2]
000070  635d              STR      r5,[r3,#0x34]
000072  f8565021          LDR      r5,[r6,r1,LSL #2]
000076  639d              STR      r5,[r3,#0x38]
000078  f8500021          LDR      r0,[r0,r1,LSL #2]
00007c  63d8              STR      r0,[r3,#0x3c]
00007e  2021              MOVS     r0,#0x21
000080  6058              STR      r0,[r3,#4]
000082  1c49              ADDS     r1,r1,#1
000084  b2c8              UXTB     r0,r1
000086  70e0              STRB     r0,[r4,#3]
000088  2808              CMP      r0,#8
00008a  d300              BCC      |L8.142|
00008c  70e2              STRB     r2,[r4,#3]
                  |L8.142|
00008e  7022              STRB     r2,[r4,#0]
                  |L8.144|
000090  e8bd8ff0          POP      {r4-r11,pc}
;;;122    
                          ENDP

                  |L8.148|
                          DCD      ||.bss||
                  |L8.152|
                          DCD      ||.data||
                  |L8.156|
                          DCD      0x40044000

                          AREA ||area_number.9||, CODE, READONLY, ALIGN=2

                          EXPORTAS ||area_number.9||, ||.text||
                  can_adr_hndl PROC
;;;109    //-----------------------------------------------
;;;110    char CRC1_in(void)
000000  4808              LDR      r0,|L9.36|
;;;111    {
;;;112    char r,j,lb;
;;;113    lb=(RXBUFF[1]&0x1f)+0x04;
000002  f1000128          ADD      r1,r0,#0x28
;;;114    r=RXBUFF[0];
;;;115    for(j=1;j<(lb+1);j++)
;;;116    	{
;;;117    	r=(RXBUFF[j]^Table87[r]);
000006  78c2              LDRB     r2,[r0,#3]  ; RXBUFF
000008  708a              STRB     r2,[r1,#2]            ;113
00000a  7882              LDRB     r2,[r0,#2]            ;113  ; RXBUFF
00000c  70ca              STRB     r2,[r1,#3]            ;113
00000e  7902              LDRB     r2,[r0,#4]            ;114  ; RXBUFF
000010  0913              LSRS     r3,r2,#4              ;115
000012  ea431202          ORR      r2,r3,r2,LSL #4       ;115
000016  710a              STRB     r2,[r1,#4]
000018  7940              LDRB     r0,[r0,#5]  ; RXBUFF
00001a  0902              LSRS     r2,r0,#4              ;115
00001c  ea421000          ORR      r0,r2,r0,LSL #4       ;115
000020  7148              STRB     r0,[r1,#5]            ;115
;;;118    	}
;;;119    if(r==0)r=0xFF;
000022  4770              BX       lr
;;;120    return r;	
;;;121    } 
;;;122    
                          ENDP

                  |L9.36|
                          DCD      ||.bss||+0x124

                          AREA ||area_number.10||, CODE, READONLY, ALIGN=2

                          EXPORTAS ||area_number.10||, ||.text||
                  can2_init PROC
;;;109    //-----------------------------------------------
;;;110    char CRC1_in(void)
000000  4912              LDR      r1,|L10.76|
;;;111    {
;;;112    char r,j,lb;
;;;113    lb=(RXBUFF[1]&0x1f)+0x04;
000002  b510              PUSH     {r4,lr}
;;;114    r=RXBUFF[0];
;;;115    for(j=1;j<(lb+1);j++)
000004  680a              LDR      r2,[r1,#0]
;;;116    	{
;;;117    	r=(RXBUFF[j]^Table87[r]);
000006  f4424280          ORR      r2,r2,#0x4000
00000a  600a              STR      r2,[r1,#0]            ;113
00000c  4910              LDR      r1,|L10.80|
00000e  688a              LDR      r2,[r1,#8]            ;114
000010  f4223270          BIC      r2,r2,#0x3c000        ;115
000014  608a              STR      r2,[r1,#8]
000016  690a              LDR      r2,[r1,#0x10]
000018  f44232a0          ORR      r2,r2,#0x14000
00001c  610a              STR      r2,[r1,#0x10]         ;115
00001e  4a0d              LDR      r2,|L10.84|
000020  f04f0100          MOV      r1,#0                 ;115
;;;118    	}
;;;119    if(r==0)r=0xFF;
000024  8251              STRH     r1,[r2,#0x12]
000026  4b0c              LDR      r3,|L10.88|
;;;120    return r;	
;;;121    } 
000028  f04f0201          MOV      r2,#1
00002c  601a              STR      r2,[r3,#0]
00002e  4c0b              LDR      r4,|L10.92|
000030  6022              STR      r2,[r4,#0]
000032  6121              STR      r1,[r4,#0x10]
000034  60a1              STR      r1,[r4,#8]
000036  6160              STR      r0,[r4,#0x14]
000038  6021              STR      r1,[r4,#0]
00003a  f04f0019          MOV      r0,#0x19
00003e  f7fffffe          BL       NVIC_EnableIRQ
000042  2003              MOVS     r0,#3
000044  6120              STR      r0,[r4,#0x10]
000046  2001              MOVS     r0,#1
000048  bd10              POP      {r4,pc}
;;;122    
                          ENDP

00004a  0000              DCW      0x0000
                  |L10.76|
                          DCD      0x400fc0c4
                  |L10.80|
                          DCD      0x4002c000
                  |L10.84|
                          DCD      ||.data||
                  |L10.88|
                          DCD      0x4003c000
                  |L10.92|
                          DCD      0x40048000

                          AREA ||.bss||, DATA, NOINIT, ALIGN=2

                  can1_info
                          %        32
                  can1_id
                          %        32
                  can1_data
                          %        32
                  can1_datb
                          %        32
                  can2_info
                          %        32
                  can2_id
                          %        32
                  can2_data
                          %        32
                  can2_datb
                          %        32
                  rotor_can
                          %        12
                  gFullCANList
                          %        24
                  RXBUFF
                          %        40
                  TXBUFF
                          %        40
                  can_rotor
                          %        10
                  can_debug_plazma
                          %        20

                          AREA ||area_number.13||, DATA, NOINIT, ALIGN=0

                          EXPORTAS ||area_number.13||, ||.bss||
                  bd_dumm
                          %        25

                          AREA ||area_number.14||, DATA, NOINIT, ALIGN=0

                          EXPORTAS ||area_number.14||, ||.bss||
                  ||bd||
                          %        25

                          AREA ||area_number.15||, DATA, NOINIT, ALIGN=0

                          EXPORTAS ||area_number.15||, ||.bss||
                  RXBUFF2
                          %        40

                          AREA ||area_number.16||, DATA, NOINIT, ALIGN=0

                          EXPORTAS ||area_number.16||, ||.bss||
                  TXBUFF2
                          %        40

                          AREA ||area_number.17||, DATA, NOINIT, ALIGN=0

                          EXPORTAS ||area_number.17||, ||.bss||
                  plazma_can_pal
                          %        20

                          AREA ||.constdata||, DATA, READONLY, ALIGN=0

                  Table87
000000  000e1c12          DCB      0x00,0x0e,0x1c,0x12
000004  3836242a          DCB      0x38,0x36,0x24,0x2a
000008  707e6c62          DCB      0x70,0x7e,0x6c,0x62
00000c  4846545a          DCB      0x48,0x46,0x54,0x5a
000010  e0eefcf2          DCB      0xe0,0xee,0xfc,0xf2
000014  d8d6c4ca          DCB      0xd8,0xd6,0xc4,0xca
000018  909e8c82          DCB      0x90,0x9e,0x8c,0x82
00001c  a8a6b4ba          DCB      0xa8,0xa6,0xb4,0xba
000020  cec0d2dc          DCB      0xce,0xc0,0xd2,0xdc
000024  f6f8eae4          DCB      0xf6,0xf8,0xea,0xe4
000028  beb0a2ac          DCB      0xbe,0xb0,0xa2,0xac
00002c  86889a94          DCB      0x86,0x88,0x9a,0x94
000030  2e20323c          DCB      0x2e,0x20,0x32,0x3c
000034  16180a04          DCB      0x16,0x18,0x0a,0x04
000038  5e50424c          DCB      0x5e,0x50,0x42,0x4c
00003c  66687a74          DCB      0x66,0x68,0x7a,0x74
000040  929c8e80          DCB      0x92,0x9c,0x8e,0x80
000044  aaa4b6b8          DCB      0xaa,0xa4,0xb6,0xb8
000048  e2ecfef0          DCB      0xe2,0xec,0xfe,0xf0
00004c  dad4c6c8          DCB      0xda,0xd4,0xc6,0xc8
000050  727c6e60          DCB      0x72,0x7c,0x6e,0x60
000054  4a445658          DCB      0x4a,0x44,0x56,0x58
000058  020c1e10          DCB      0x02,0x0c,0x1e,0x10
00005c  3a342628          DCB      0x3a,0x34,0x26,0x28
000060  5c52404e          DCB      0x5c,0x52,0x40,0x4e
000064  646a7876          DCB      0x64,0x6a,0x78,0x76
000068  2c22303e          DCB      0x2c,0x22,0x30,0x3e
00006c  141a0806          DCB      0x14,0x1a,0x08,0x06
000070  bcb2a0ae          DCB      0xbc,0xb2,0xa0,0xae
000074  848a9896          DCB      0x84,0x8a,0x98,0x96
000078  ccc2d0de          DCB      0xcc,0xc2,0xd0,0xde
00007c  f4fae8e6          DCB      0xf4,0xfa,0xe8,0xe6
000080  2a243638          DCB      0x2a,0x24,0x36,0x38
000084  121c0e00          DCB      0x12,0x1c,0x0e,0x00
000088  5a544648          DCB      0x5a,0x54,0x46,0x48
00008c  626c7e70          DCB      0x62,0x6c,0x7e,0x70
000090  cac4d6d8          DCB      0xca,0xc4,0xd6,0xd8
000094  f2fceee0          DCB      0xf2,0xfc,0xee,0xe0
000098  bab4a6a8          DCB      0xba,0xb4,0xa6,0xa8
00009c  828c9e90          DCB      0x82,0x8c,0x9e,0x90
0000a0  e4eaf8f6          DCB      0xe4,0xea,0xf8,0xf6
0000a4  dcd2c0ce          DCB      0xdc,0xd2,0xc0,0xce
0000a8  949a8886          DCB      0x94,0x9a,0x88,0x86
0000ac  aca2b0be          DCB      0xac,0xa2,0xb0,0xbe
0000b0  040a1816          DCB      0x04,0x0a,0x18,0x16
0000b4  3c32202e          DCB      0x3c,0x32,0x20,0x2e
0000b8  747a6866          DCB      0x74,0x7a,0x68,0x66
0000bc  4c42505e          DCB      0x4c,0x42,0x50,0x5e
0000c0  b8b6a4aa          DCB      0xb8,0xb6,0xa4,0xaa
0000c4  808e9c92          DCB      0x80,0x8e,0x9c,0x92
0000c8  c8c6d4da          DCB      0xc8,0xc6,0xd4,0xda
0000cc  f0feece2          DCB      0xf0,0xfe,0xec,0xe2
0000d0  5856444a          DCB      0x58,0x56,0x44,0x4a
0000d4  606e7c72          DCB      0x60,0x6e,0x7c,0x72
0000d8  2826343a          DCB      0x28,0x26,0x34,0x3a
0000dc  101e0c02          DCB      0x10,0x1e,0x0c,0x02
0000e0  76786a64          DCB      0x76,0x78,0x6a,0x64
0000e4  4e40525c          DCB      0x4e,0x40,0x52,0x5c
0000e8  06081a14          DCB      0x06,0x08,0x1a,0x14
0000ec  3e30222c          DCB      0x3e,0x30,0x22,0x2c
0000f0  96988a84          DCB      0x96,0x98,0x8a,0x84
0000f4  aea0b2bc          DCB      0xae,0xa0,0xb2,0xbc
0000f8  e6e8faf4          DCB      0xe6,0xe8,0xfa,0xf4
0000fc  ded0c2cc          DCB      0xde,0xd0,0xc2,0xcc
                  Table95
000100  002a547e          DCB      0x00,0x2a,0x54,0x7e
000104  a882fcd6          DCB      0xa8,0x82,0xfc,0xd6
000108  7a502e04          DCB      0x7a,0x50,0x2e,0x04
00010c  d2f886ac          DCB      0xd2,0xf8,0x86,0xac
000110  f4dea08a          DCB      0xf4,0xde,0xa0,0x8a
000114  5c760822          DCB      0x5c,0x76,0x08,0x22
000118  8ea4daf0          DCB      0x8e,0xa4,0xda,0xf0
00011c  260c7258          DCB      0x26,0x0c,0x72,0x58
000120  c2e896bc          DCB      0xc2,0xe8,0x96,0xbc
000124  6a403e14          DCB      0x6a,0x40,0x3e,0x14
000128  b892ecc6          DCB      0xb8,0x92,0xec,0xc6
00012c  103a446e          DCB      0x10,0x3a,0x44,0x6e
000130  361c6248          DCB      0x36,0x1c,0x62,0x48
000134  9eb4cae0          DCB      0x9e,0xb4,0xca,0xe0
000138  4c661832          DCB      0x4c,0x66,0x18,0x32
00013c  e4ceb09a          DCB      0xe4,0xce,0xb0,0x9a
000140  ae84fad0          DCB      0xae,0x84,0xfa,0xd0
000144  062c5278          DCB      0x06,0x2c,0x52,0x78
000148  d4fe80aa          DCB      0xd4,0xfe,0x80,0xaa
00014c  7c562802          DCB      0x7c,0x56,0x28,0x02
000150  5a700e24          DCB      0x5a,0x70,0x0e,0x24
000154  f2d8a68c          DCB      0xf2,0xd8,0xa6,0x8c
000158  200a745e          DCB      0x20,0x0a,0x74,0x5e
00015c  88a2dcf6          DCB      0x88,0xa2,0xdc,0xf6
000160  6c463812          DCB      0x6c,0x46,0x38,0x12
000164  c4ee90ba          DCB      0xc4,0xee,0x90,0xba
000168  163c4268          DCB      0x16,0x3c,0x42,0x68
00016c  be94eac0          DCB      0xbe,0x94,0xea,0xc0
000170  98b2cce6          DCB      0x98,0xb2,0xcc,0xe6
000174  301a644e          DCB      0x30,0x1a,0x64,0x4e
000178  e2c8b69c          DCB      0xe2,0xc8,0xb6,0x9c
00017c  4a601e34          DCB      0x4a,0x60,0x1e,0x34
000180  765c2208          DCB      0x76,0x5c,0x22,0x08
000184  def48aa0          DCB      0xde,0xf4,0x8a,0xa0
000188  0c265872          DCB      0x0c,0x26,0x58,0x72
00018c  a48ef0da          DCB      0xa4,0x8e,0xf0,0xda
000190  82a8d6fc          DCB      0x82,0xa8,0xd6,0xfc
000194  2a007e54          DCB      0x2a,0x00,0x7e,0x54
000198  f8d2ac86          DCB      0xf8,0xd2,0xac,0x86
00019c  507a042e          DCB      0x50,0x7a,0x04,0x2e
0001a0  b49ee0ca          DCB      0xb4,0x9e,0xe0,0xca
0001a4  1c364862          DCB      0x1c,0x36,0x48,0x62
0001a8  cee49ab0          DCB      0xce,0xe4,0x9a,0xb0
0001ac  664c3218          DCB      0x66,0x4c,0x32,0x18
0001b0  406a143e          DCB      0x40,0x6a,0x14,0x3e
0001b4  e8c2bc96          DCB      0xe8,0xc2,0xbc,0x96
0001b8  3a106e44          DCB      0x3a,0x10,0x6e,0x44
0001bc  92b8c6ec          DCB      0x92,0xb8,0xc6,0xec
0001c0  d8f28ca6          DCB      0xd8,0xf2,0x8c,0xa6
0001c4  705a240e          DCB      0x70,0x5a,0x24,0x0e
0001c8  a288f6dc          DCB      0xa2,0x88,0xf6,0xdc
0001cc  0a205e74          DCB      0x0a,0x20,0x5e,0x74
0001d0  2c067852          DCB      0x2c,0x06,0x78,0x52
0001d4  84aed0fa          DCB      0x84,0xae,0xd0,0xfa
0001d8  567c0228          DCB      0x56,0x7c,0x02,0x28
0001dc  fed4aa80          DCB      0xfe,0xd4,0xaa,0x80
0001e0  1a304e64          DCB      0x1a,0x30,0x4e,0x64
0001e4  b298e6cc          DCB      0xb2,0x98,0xe6,0xcc
0001e8  604a341e          DCB      0x60,0x4a,0x34,0x1e
0001ec  c8e29cb6          DCB      0xc8,0xe2,0x9c,0xb6
0001f0  eec4ba90          DCB      0xee,0xc4,0xba,0x90
0001f4  466c1238          DCB      0x46,0x6c,0x12,0x38
0001f8  94bec0ea          DCB      0x94,0xbe,0xc0,0xea
0001fc  3c166842          DCB      0x3c,0x16,0x68,0x42

                          AREA ||.data||, DATA, ALIGN=2

                  bOUT_FREE
000000  01                DCB      0x01
                  bOUT_FREE2
000001  01                DCB      0x01
                  ptr_can1_tx_wr
000002  00                DCB      0x00
                  ptr_can1_tx_rd
000003  00                DCB      0x00
                  ptr_can2_tx_wr
000004  00                DCB      0x00
                  ptr_can2_tx_rd
000005  00                DCB      0x00
                  ||bR||
000006  00                DCB      0x00
                  bIN
000007  00                DCB      0x00
                  bIN2
000008  00                DCB      0x00
                  can_tx_cnt
000009  00                DCB      0x00
                  cnt_can_pal
00000a  00                DCB      0x00
                  plazma_can
00000b  00                DCB      0x00
                  plazma_can1
00000c  00                DCB      0x00
                  plazma_can2
00000d  00                DCB      0x00
                  plazma_can3
00000e  00                DCB      0x00
                  plazma_can4
00000f  00                DCB      0x00
                  bCAN1_INIT
000010  0000              DCB      0x00,0x00
                  gCANFilter
000012  0000              DCW      0x0000
                  can_reset_cnt
000014  0000              DCW      0x0000
                  can2_tx_cnt
000016  0000              DCB      0x00,0x00
                  CANStatus
                          DCD      0x00000000

                          AREA ||area_number.21||, DATA, ALIGN=0

                          EXPORTAS ||area_number.21||, ||.data||
                  TX_len
000000  00                DCB      0x00

                          AREA ||area_number.22||, DATA, ALIGN=0

                          EXPORTAS ||area_number.22||, ||.data||
                  rotor_rotor_rotor
000000  0000              DCB      0x00,0x00

                          AREA ||area_number.23||, DATA, ALIGN=0

                          EXPORTAS ||area_number.23||, ||.data||
                  plazma_can_pal_index
000000  00                DCB      0x00
